
SmartRelay.elf:     file format elf32-littlearm

Sections:
Idx Name          Size      VMA       LMA       File off  Algn
  0 .isr_vector   000001d0  08000000  08000000  00010000  2**0
                  CONTENTS, ALLOC, LOAD, READONLY, DATA
  1 .text         000031dc  080001d0  080001d0  000101d0  2**3
                  CONTENTS, ALLOC, LOAD, READONLY, CODE
  2 .rodata       000000b4  080033ac  080033ac  000133ac  2**0
                  CONTENTS, ALLOC, LOAD, READONLY, DATA
  3 .init_array   00000004  08003460  08003460  00013460  2**2
                  CONTENTS, ALLOC, LOAD, DATA
  4 .fini_array   00000004  08003464  08003464  00013464  2**2
                  CONTENTS, ALLOC, LOAD, DATA
  5 .data         00000088  20000000  08003468  00020000  2**2
                  CONTENTS, ALLOC, LOAD, DATA
  6 .bss          000000e8  20000088  080034f0  00020088  2**2
                  ALLOC
  7 ._user_heap_stack 00000600  20000170  080034f0  00020170  2**0
                  ALLOC
  8 .ARM.attributes 00000029  00000000  00000000  00020088  2**0
                  CONTENTS, READONLY
  9 .debug_info   0000e09f  00000000  00000000  000200b1  2**0
                  CONTENTS, READONLY, DEBUGGING
 10 .debug_abbrev 00002287  00000000  00000000  0002e150  2**0
                  CONTENTS, READONLY, DEBUGGING
 11 .debug_loc    00005710  00000000  00000000  000303d7  2**0
                  CONTENTS, READONLY, DEBUGGING
 12 .debug_aranges 000008c0  00000000  00000000  00035ae8  2**3
                  CONTENTS, READONLY, DEBUGGING
 13 .debug_ranges 00000ba0  00000000  00000000  000363a8  2**3
                  CONTENTS, READONLY, DEBUGGING
 14 .debug_line   00004574  00000000  00000000  00036f48  2**0
                  CONTENTS, READONLY, DEBUGGING
 15 .debug_str    00003360  00000000  00000000  0003b4bc  2**0
                  CONTENTS, READONLY, DEBUGGING
 16 .comment      0000007c  00000000  00000000  0003e81c  2**0
                  CONTENTS, READONLY
 17 .debug_frame  00001f50  00000000  00000000  0003e898  2**2
                  CONTENTS, READONLY, DEBUGGING

Disassembly of section .text:

080001d0 <__do_global_dtors_aux>:
 80001d0:	b510      	push	{r4, lr}
 80001d2:	4c05      	ldr	r4, [pc, #20]	; (80001e8 <__do_global_dtors_aux+0x18>)
 80001d4:	7823      	ldrb	r3, [r4, #0]
 80001d6:	b933      	cbnz	r3, 80001e6 <__do_global_dtors_aux+0x16>
 80001d8:	4b04      	ldr	r3, [pc, #16]	; (80001ec <__do_global_dtors_aux+0x1c>)
 80001da:	b113      	cbz	r3, 80001e2 <__do_global_dtors_aux+0x12>
 80001dc:	4804      	ldr	r0, [pc, #16]	; (80001f0 <__do_global_dtors_aux+0x20>)
 80001de:	f3af 8000 	nop.w
 80001e2:	2301      	movs	r3, #1
 80001e4:	7023      	strb	r3, [r4, #0]
 80001e6:	bd10      	pop	{r4, pc}
 80001e8:	20000088 	.word	0x20000088
 80001ec:	00000000 	.word	0x00000000
 80001f0:	08003394 	.word	0x08003394

080001f4 <frame_dummy>:
 80001f4:	b508      	push	{r3, lr}
 80001f6:	4b03      	ldr	r3, [pc, #12]	; (8000204 <frame_dummy+0x10>)
 80001f8:	b11b      	cbz	r3, 8000202 <frame_dummy+0xe>
 80001fa:	4903      	ldr	r1, [pc, #12]	; (8000208 <frame_dummy+0x14>)
 80001fc:	4803      	ldr	r0, [pc, #12]	; (800020c <frame_dummy+0x18>)
 80001fe:	f3af 8000 	nop.w
 8000202:	bd08      	pop	{r3, pc}
 8000204:	00000000 	.word	0x00000000
 8000208:	2000008c 	.word	0x2000008c
 800020c:	08003394 	.word	0x08003394

08000210 <strlen>:
 8000210:	4603      	mov	r3, r0
 8000212:	f813 2b01 	ldrb.w	r2, [r3], #1
 8000216:	2a00      	cmp	r2, #0
 8000218:	d1fb      	bne.n	8000212 <strlen+0x2>
 800021a:	1a18      	subs	r0, r3, r0
 800021c:	3801      	subs	r0, #1
 800021e:	4770      	bx	lr

08000220 <__aeabi_drsub>:
 8000220:	f081 4100 	eor.w	r1, r1, #2147483648	; 0x80000000
 8000224:	e002      	b.n	800022c <__adddf3>
 8000226:	bf00      	nop

08000228 <__aeabi_dsub>:
 8000228:	f083 4300 	eor.w	r3, r3, #2147483648	; 0x80000000

0800022c <__adddf3>:
 800022c:	b530      	push	{r4, r5, lr}
 800022e:	ea4f 0441 	mov.w	r4, r1, lsl #1
 8000232:	ea4f 0543 	mov.w	r5, r3, lsl #1
 8000236:	ea94 0f05 	teq	r4, r5
 800023a:	bf08      	it	eq
 800023c:	ea90 0f02 	teqeq	r0, r2
 8000240:	bf1f      	itttt	ne
 8000242:	ea54 0c00 	orrsne.w	ip, r4, r0
 8000246:	ea55 0c02 	orrsne.w	ip, r5, r2
 800024a:	ea7f 5c64 	mvnsne.w	ip, r4, asr #21
 800024e:	ea7f 5c65 	mvnsne.w	ip, r5, asr #21
 8000252:	f000 80e2 	beq.w	800041a <__adddf3+0x1ee>
 8000256:	ea4f 5454 	mov.w	r4, r4, lsr #21
 800025a:	ebd4 5555 	rsbs	r5, r4, r5, lsr #21
 800025e:	bfb8      	it	lt
 8000260:	426d      	neglt	r5, r5
 8000262:	dd0c      	ble.n	800027e <__adddf3+0x52>
 8000264:	442c      	add	r4, r5
 8000266:	ea80 0202 	eor.w	r2, r0, r2
 800026a:	ea81 0303 	eor.w	r3, r1, r3
 800026e:	ea82 0000 	eor.w	r0, r2, r0
 8000272:	ea83 0101 	eor.w	r1, r3, r1
 8000276:	ea80 0202 	eor.w	r2, r0, r2
 800027a:	ea81 0303 	eor.w	r3, r1, r3
 800027e:	2d36      	cmp	r5, #54	; 0x36
 8000280:	bf88      	it	hi
 8000282:	bd30      	pophi	{r4, r5, pc}
 8000284:	f011 4f00 	tst.w	r1, #2147483648	; 0x80000000
 8000288:	ea4f 3101 	mov.w	r1, r1, lsl #12
 800028c:	f44f 1c80 	mov.w	ip, #1048576	; 0x100000
 8000290:	ea4c 3111 	orr.w	r1, ip, r1, lsr #12
 8000294:	d002      	beq.n	800029c <__adddf3+0x70>
 8000296:	4240      	negs	r0, r0
 8000298:	eb61 0141 	sbc.w	r1, r1, r1, lsl #1
 800029c:	f013 4f00 	tst.w	r3, #2147483648	; 0x80000000
 80002a0:	ea4f 3303 	mov.w	r3, r3, lsl #12
 80002a4:	ea4c 3313 	orr.w	r3, ip, r3, lsr #12
 80002a8:	d002      	beq.n	80002b0 <__adddf3+0x84>
 80002aa:	4252      	negs	r2, r2
 80002ac:	eb63 0343 	sbc.w	r3, r3, r3, lsl #1
 80002b0:	ea94 0f05 	teq	r4, r5
 80002b4:	f000 80a7 	beq.w	8000406 <__adddf3+0x1da>
 80002b8:	f1a4 0401 	sub.w	r4, r4, #1
 80002bc:	f1d5 0e20 	rsbs	lr, r5, #32
 80002c0:	db0d      	blt.n	80002de <__adddf3+0xb2>
 80002c2:	fa02 fc0e 	lsl.w	ip, r2, lr
 80002c6:	fa22 f205 	lsr.w	r2, r2, r5
 80002ca:	1880      	adds	r0, r0, r2
 80002cc:	f141 0100 	adc.w	r1, r1, #0
 80002d0:	fa03 f20e 	lsl.w	r2, r3, lr
 80002d4:	1880      	adds	r0, r0, r2
 80002d6:	fa43 f305 	asr.w	r3, r3, r5
 80002da:	4159      	adcs	r1, r3
 80002dc:	e00e      	b.n	80002fc <__adddf3+0xd0>
 80002de:	f1a5 0520 	sub.w	r5, r5, #32
 80002e2:	f10e 0e20 	add.w	lr, lr, #32
 80002e6:	2a01      	cmp	r2, #1
 80002e8:	fa03 fc0e 	lsl.w	ip, r3, lr
 80002ec:	bf28      	it	cs
 80002ee:	f04c 0c02 	orrcs.w	ip, ip, #2
 80002f2:	fa43 f305 	asr.w	r3, r3, r5
 80002f6:	18c0      	adds	r0, r0, r3
 80002f8:	eb51 71e3 	adcs.w	r1, r1, r3, asr #31
 80002fc:	f001 4500 	and.w	r5, r1, #2147483648	; 0x80000000
 8000300:	d507      	bpl.n	8000312 <__adddf3+0xe6>
 8000302:	f04f 0e00 	mov.w	lr, #0
 8000306:	f1dc 0c00 	rsbs	ip, ip, #0
 800030a:	eb7e 0000 	sbcs.w	r0, lr, r0
 800030e:	eb6e 0101 	sbc.w	r1, lr, r1
 8000312:	f5b1 1f80 	cmp.w	r1, #1048576	; 0x100000
 8000316:	d31b      	bcc.n	8000350 <__adddf3+0x124>
 8000318:	f5b1 1f00 	cmp.w	r1, #2097152	; 0x200000
 800031c:	d30c      	bcc.n	8000338 <__adddf3+0x10c>
 800031e:	0849      	lsrs	r1, r1, #1
 8000320:	ea5f 0030 	movs.w	r0, r0, rrx
 8000324:	ea4f 0c3c 	mov.w	ip, ip, rrx
 8000328:	f104 0401 	add.w	r4, r4, #1
 800032c:	ea4f 5244 	mov.w	r2, r4, lsl #21
 8000330:	f512 0f80 	cmn.w	r2, #4194304	; 0x400000
 8000334:	f080 809a 	bcs.w	800046c <__adddf3+0x240>
 8000338:	f1bc 4f00 	cmp.w	ip, #2147483648	; 0x80000000
 800033c:	bf08      	it	eq
 800033e:	ea5f 0c50 	movseq.w	ip, r0, lsr #1
 8000342:	f150 0000 	adcs.w	r0, r0, #0
 8000346:	eb41 5104 	adc.w	r1, r1, r4, lsl #20
 800034a:	ea41 0105 	orr.w	r1, r1, r5
 800034e:	bd30      	pop	{r4, r5, pc}
 8000350:	ea5f 0c4c 	movs.w	ip, ip, lsl #1
 8000354:	4140      	adcs	r0, r0
 8000356:	eb41 0101 	adc.w	r1, r1, r1
 800035a:	f411 1f80 	tst.w	r1, #1048576	; 0x100000
 800035e:	f1a4 0401 	sub.w	r4, r4, #1
 8000362:	d1e9      	bne.n	8000338 <__adddf3+0x10c>
 8000364:	f091 0f00 	teq	r1, #0
 8000368:	bf04      	itt	eq
 800036a:	4601      	moveq	r1, r0
 800036c:	2000      	moveq	r0, #0
 800036e:	fab1 f381 	clz	r3, r1
 8000372:	bf08      	it	eq
 8000374:	3320      	addeq	r3, #32
 8000376:	f1a3 030b 	sub.w	r3, r3, #11
 800037a:	f1b3 0220 	subs.w	r2, r3, #32
 800037e:	da0c      	bge.n	800039a <__adddf3+0x16e>
 8000380:	320c      	adds	r2, #12
 8000382:	dd08      	ble.n	8000396 <__adddf3+0x16a>
 8000384:	f102 0c14 	add.w	ip, r2, #20
 8000388:	f1c2 020c 	rsb	r2, r2, #12
 800038c:	fa01 f00c 	lsl.w	r0, r1, ip
 8000390:	fa21 f102 	lsr.w	r1, r1, r2
 8000394:	e00c      	b.n	80003b0 <__adddf3+0x184>
 8000396:	f102 0214 	add.w	r2, r2, #20
 800039a:	bfd8      	it	le
 800039c:	f1c2 0c20 	rsble	ip, r2, #32
 80003a0:	fa01 f102 	lsl.w	r1, r1, r2
 80003a4:	fa20 fc0c 	lsr.w	ip, r0, ip
 80003a8:	bfdc      	itt	le
 80003aa:	ea41 010c 	orrle.w	r1, r1, ip
 80003ae:	4090      	lslle	r0, r2
 80003b0:	1ae4      	subs	r4, r4, r3
 80003b2:	bfa2      	ittt	ge
 80003b4:	eb01 5104 	addge.w	r1, r1, r4, lsl #20
 80003b8:	4329      	orrge	r1, r5
 80003ba:	bd30      	popge	{r4, r5, pc}
 80003bc:	ea6f 0404 	mvn.w	r4, r4
 80003c0:	3c1f      	subs	r4, #31
 80003c2:	da1c      	bge.n	80003fe <__adddf3+0x1d2>
 80003c4:	340c      	adds	r4, #12
 80003c6:	dc0e      	bgt.n	80003e6 <__adddf3+0x1ba>
 80003c8:	f104 0414 	add.w	r4, r4, #20
 80003cc:	f1c4 0220 	rsb	r2, r4, #32
 80003d0:	fa20 f004 	lsr.w	r0, r0, r4
 80003d4:	fa01 f302 	lsl.w	r3, r1, r2
 80003d8:	ea40 0003 	orr.w	r0, r0, r3
 80003dc:	fa21 f304 	lsr.w	r3, r1, r4
 80003e0:	ea45 0103 	orr.w	r1, r5, r3
 80003e4:	bd30      	pop	{r4, r5, pc}
 80003e6:	f1c4 040c 	rsb	r4, r4, #12
 80003ea:	f1c4 0220 	rsb	r2, r4, #32
 80003ee:	fa20 f002 	lsr.w	r0, r0, r2
 80003f2:	fa01 f304 	lsl.w	r3, r1, r4
 80003f6:	ea40 0003 	orr.w	r0, r0, r3
 80003fa:	4629      	mov	r1, r5
 80003fc:	bd30      	pop	{r4, r5, pc}
 80003fe:	fa21 f004 	lsr.w	r0, r1, r4
 8000402:	4629      	mov	r1, r5
 8000404:	bd30      	pop	{r4, r5, pc}
 8000406:	f094 0f00 	teq	r4, #0
 800040a:	f483 1380 	eor.w	r3, r3, #1048576	; 0x100000
 800040e:	bf06      	itte	eq
 8000410:	f481 1180 	eoreq.w	r1, r1, #1048576	; 0x100000
 8000414:	3401      	addeq	r4, #1
 8000416:	3d01      	subne	r5, #1
 8000418:	e74e      	b.n	80002b8 <__adddf3+0x8c>
 800041a:	ea7f 5c64 	mvns.w	ip, r4, asr #21
 800041e:	bf18      	it	ne
 8000420:	ea7f 5c65 	mvnsne.w	ip, r5, asr #21
 8000424:	d029      	beq.n	800047a <__adddf3+0x24e>
 8000426:	ea94 0f05 	teq	r4, r5
 800042a:	bf08      	it	eq
 800042c:	ea90 0f02 	teqeq	r0, r2
 8000430:	d005      	beq.n	800043e <__adddf3+0x212>
 8000432:	ea54 0c00 	orrs.w	ip, r4, r0
 8000436:	bf04      	itt	eq
 8000438:	4619      	moveq	r1, r3
 800043a:	4610      	moveq	r0, r2
 800043c:	bd30      	pop	{r4, r5, pc}
 800043e:	ea91 0f03 	teq	r1, r3
 8000442:	bf1e      	ittt	ne
 8000444:	2100      	movne	r1, #0
 8000446:	2000      	movne	r0, #0
 8000448:	bd30      	popne	{r4, r5, pc}
 800044a:	ea5f 5c54 	movs.w	ip, r4, lsr #21
 800044e:	d105      	bne.n	800045c <__adddf3+0x230>
 8000450:	0040      	lsls	r0, r0, #1
 8000452:	4149      	adcs	r1, r1
 8000454:	bf28      	it	cs
 8000456:	f041 4100 	orrcs.w	r1, r1, #2147483648	; 0x80000000
 800045a:	bd30      	pop	{r4, r5, pc}
 800045c:	f514 0480 	adds.w	r4, r4, #4194304	; 0x400000
 8000460:	bf3c      	itt	cc
 8000462:	f501 1180 	addcc.w	r1, r1, #1048576	; 0x100000
 8000466:	bd30      	popcc	{r4, r5, pc}
 8000468:	f001 4500 	and.w	r5, r1, #2147483648	; 0x80000000
 800046c:	f045 41fe 	orr.w	r1, r5, #2130706432	; 0x7f000000
 8000470:	f441 0170 	orr.w	r1, r1, #15728640	; 0xf00000
 8000474:	f04f 0000 	mov.w	r0, #0
 8000478:	bd30      	pop	{r4, r5, pc}
 800047a:	ea7f 5c64 	mvns.w	ip, r4, asr #21
 800047e:	bf1a      	itte	ne
 8000480:	4619      	movne	r1, r3
 8000482:	4610      	movne	r0, r2
 8000484:	ea7f 5c65 	mvnseq.w	ip, r5, asr #21
 8000488:	bf1c      	itt	ne
 800048a:	460b      	movne	r3, r1
 800048c:	4602      	movne	r2, r0
 800048e:	ea50 3401 	orrs.w	r4, r0, r1, lsl #12
 8000492:	bf06      	itte	eq
 8000494:	ea52 3503 	orrseq.w	r5, r2, r3, lsl #12
 8000498:	ea91 0f03 	teqeq	r1, r3
 800049c:	f441 2100 	orrne.w	r1, r1, #524288	; 0x80000
 80004a0:	bd30      	pop	{r4, r5, pc}
 80004a2:	bf00      	nop

080004a4 <__aeabi_ui2d>:
 80004a4:	f090 0f00 	teq	r0, #0
 80004a8:	bf04      	itt	eq
 80004aa:	2100      	moveq	r1, #0
 80004ac:	4770      	bxeq	lr
 80004ae:	b530      	push	{r4, r5, lr}
 80004b0:	f44f 6480 	mov.w	r4, #1024	; 0x400
 80004b4:	f104 0432 	add.w	r4, r4, #50	; 0x32
 80004b8:	f04f 0500 	mov.w	r5, #0
 80004bc:	f04f 0100 	mov.w	r1, #0
 80004c0:	e750      	b.n	8000364 <__adddf3+0x138>
 80004c2:	bf00      	nop

080004c4 <__aeabi_i2d>:
 80004c4:	f090 0f00 	teq	r0, #0
 80004c8:	bf04      	itt	eq
 80004ca:	2100      	moveq	r1, #0
 80004cc:	4770      	bxeq	lr
 80004ce:	b530      	push	{r4, r5, lr}
 80004d0:	f44f 6480 	mov.w	r4, #1024	; 0x400
 80004d4:	f104 0432 	add.w	r4, r4, #50	; 0x32
 80004d8:	f010 4500 	ands.w	r5, r0, #2147483648	; 0x80000000
 80004dc:	bf48      	it	mi
 80004de:	4240      	negmi	r0, r0
 80004e0:	f04f 0100 	mov.w	r1, #0
 80004e4:	e73e      	b.n	8000364 <__adddf3+0x138>
 80004e6:	bf00      	nop

080004e8 <__aeabi_f2d>:
 80004e8:	0042      	lsls	r2, r0, #1
 80004ea:	ea4f 01e2 	mov.w	r1, r2, asr #3
 80004ee:	ea4f 0131 	mov.w	r1, r1, rrx
 80004f2:	ea4f 7002 	mov.w	r0, r2, lsl #28
 80004f6:	bf1f      	itttt	ne
 80004f8:	f012 437f 	andsne.w	r3, r2, #4278190080	; 0xff000000
 80004fc:	f093 4f7f 	teqne	r3, #4278190080	; 0xff000000
 8000500:	f081 5160 	eorne.w	r1, r1, #939524096	; 0x38000000
 8000504:	4770      	bxne	lr
 8000506:	f092 0f00 	teq	r2, #0
 800050a:	bf14      	ite	ne
 800050c:	f093 4f7f 	teqne	r3, #4278190080	; 0xff000000
 8000510:	4770      	bxeq	lr
 8000512:	b530      	push	{r4, r5, lr}
 8000514:	f44f 7460 	mov.w	r4, #896	; 0x380
 8000518:	f001 4500 	and.w	r5, r1, #2147483648	; 0x80000000
 800051c:	f021 4100 	bic.w	r1, r1, #2147483648	; 0x80000000
 8000520:	e720      	b.n	8000364 <__adddf3+0x138>
 8000522:	bf00      	nop

08000524 <__aeabi_ul2d>:
 8000524:	ea50 0201 	orrs.w	r2, r0, r1
 8000528:	bf08      	it	eq
 800052a:	4770      	bxeq	lr
 800052c:	b530      	push	{r4, r5, lr}
 800052e:	f04f 0500 	mov.w	r5, #0
 8000532:	e00a      	b.n	800054a <__aeabi_l2d+0x16>

08000534 <__aeabi_l2d>:
 8000534:	ea50 0201 	orrs.w	r2, r0, r1
 8000538:	bf08      	it	eq
 800053a:	4770      	bxeq	lr
 800053c:	b530      	push	{r4, r5, lr}
 800053e:	f011 4500 	ands.w	r5, r1, #2147483648	; 0x80000000
 8000542:	d502      	bpl.n	800054a <__aeabi_l2d+0x16>
 8000544:	4240      	negs	r0, r0
 8000546:	eb61 0141 	sbc.w	r1, r1, r1, lsl #1
 800054a:	f44f 6480 	mov.w	r4, #1024	; 0x400
 800054e:	f104 0432 	add.w	r4, r4, #50	; 0x32
 8000552:	ea5f 5c91 	movs.w	ip, r1, lsr #22
 8000556:	f43f aedc 	beq.w	8000312 <__adddf3+0xe6>
 800055a:	f04f 0203 	mov.w	r2, #3
 800055e:	ea5f 0cdc 	movs.w	ip, ip, lsr #3
 8000562:	bf18      	it	ne
 8000564:	3203      	addne	r2, #3
 8000566:	ea5f 0cdc 	movs.w	ip, ip, lsr #3
 800056a:	bf18      	it	ne
 800056c:	3203      	addne	r2, #3
 800056e:	eb02 02dc 	add.w	r2, r2, ip, lsr #3
 8000572:	f1c2 0320 	rsb	r3, r2, #32
 8000576:	fa00 fc03 	lsl.w	ip, r0, r3
 800057a:	fa20 f002 	lsr.w	r0, r0, r2
 800057e:	fa01 fe03 	lsl.w	lr, r1, r3
 8000582:	ea40 000e 	orr.w	r0, r0, lr
 8000586:	fa21 f102 	lsr.w	r1, r1, r2
 800058a:	4414      	add	r4, r2
 800058c:	e6c1      	b.n	8000312 <__adddf3+0xe6>
 800058e:	bf00      	nop

08000590 <__aeabi_dmul>:
 8000590:	b570      	push	{r4, r5, r6, lr}
 8000592:	f04f 0cff 	mov.w	ip, #255	; 0xff
 8000596:	f44c 6ce0 	orr.w	ip, ip, #1792	; 0x700
 800059a:	ea1c 5411 	ands.w	r4, ip, r1, lsr #20
 800059e:	bf1d      	ittte	ne
 80005a0:	ea1c 5513 	andsne.w	r5, ip, r3, lsr #20
 80005a4:	ea94 0f0c 	teqne	r4, ip
 80005a8:	ea95 0f0c 	teqne	r5, ip
 80005ac:	f000 f8de 	bleq	800076c <__aeabi_dmul+0x1dc>
 80005b0:	442c      	add	r4, r5
 80005b2:	ea81 0603 	eor.w	r6, r1, r3
 80005b6:	ea21 514c 	bic.w	r1, r1, ip, lsl #21
 80005ba:	ea23 534c 	bic.w	r3, r3, ip, lsl #21
 80005be:	ea50 3501 	orrs.w	r5, r0, r1, lsl #12
 80005c2:	bf18      	it	ne
 80005c4:	ea52 3503 	orrsne.w	r5, r2, r3, lsl #12
 80005c8:	f441 1180 	orr.w	r1, r1, #1048576	; 0x100000
 80005cc:	f443 1380 	orr.w	r3, r3, #1048576	; 0x100000
 80005d0:	d038      	beq.n	8000644 <__aeabi_dmul+0xb4>
 80005d2:	fba0 ce02 	umull	ip, lr, r0, r2
 80005d6:	f04f 0500 	mov.w	r5, #0
 80005da:	fbe1 e502 	umlal	lr, r5, r1, r2
 80005de:	f006 4200 	and.w	r2, r6, #2147483648	; 0x80000000
 80005e2:	fbe0 e503 	umlal	lr, r5, r0, r3
 80005e6:	f04f 0600 	mov.w	r6, #0
 80005ea:	fbe1 5603 	umlal	r5, r6, r1, r3
 80005ee:	f09c 0f00 	teq	ip, #0
 80005f2:	bf18      	it	ne
 80005f4:	f04e 0e01 	orrne.w	lr, lr, #1
 80005f8:	f1a4 04ff 	sub.w	r4, r4, #255	; 0xff
 80005fc:	f5b6 7f00 	cmp.w	r6, #512	; 0x200
 8000600:	f564 7440 	sbc.w	r4, r4, #768	; 0x300
 8000604:	d204      	bcs.n	8000610 <__aeabi_dmul+0x80>
 8000606:	ea5f 0e4e 	movs.w	lr, lr, lsl #1
 800060a:	416d      	adcs	r5, r5
 800060c:	eb46 0606 	adc.w	r6, r6, r6
 8000610:	ea42 21c6 	orr.w	r1, r2, r6, lsl #11
 8000614:	ea41 5155 	orr.w	r1, r1, r5, lsr #21
 8000618:	ea4f 20c5 	mov.w	r0, r5, lsl #11
 800061c:	ea40 505e 	orr.w	r0, r0, lr, lsr #21
 8000620:	ea4f 2ece 	mov.w	lr, lr, lsl #11
 8000624:	f1b4 0cfd 	subs.w	ip, r4, #253	; 0xfd
 8000628:	bf88      	it	hi
 800062a:	f5bc 6fe0 	cmphi.w	ip, #1792	; 0x700
 800062e:	d81e      	bhi.n	800066e <__aeabi_dmul+0xde>
 8000630:	f1be 4f00 	cmp.w	lr, #2147483648	; 0x80000000
 8000634:	bf08      	it	eq
 8000636:	ea5f 0e50 	movseq.w	lr, r0, lsr #1
 800063a:	f150 0000 	adcs.w	r0, r0, #0
 800063e:	eb41 5104 	adc.w	r1, r1, r4, lsl #20
 8000642:	bd70      	pop	{r4, r5, r6, pc}
 8000644:	f006 4600 	and.w	r6, r6, #2147483648	; 0x80000000
 8000648:	ea46 0101 	orr.w	r1, r6, r1
 800064c:	ea40 0002 	orr.w	r0, r0, r2
 8000650:	ea81 0103 	eor.w	r1, r1, r3
 8000654:	ebb4 045c 	subs.w	r4, r4, ip, lsr #1
 8000658:	bfc2      	ittt	gt
 800065a:	ebd4 050c 	rsbsgt	r5, r4, ip
 800065e:	ea41 5104 	orrgt.w	r1, r1, r4, lsl #20
 8000662:	bd70      	popgt	{r4, r5, r6, pc}
 8000664:	f441 1180 	orr.w	r1, r1, #1048576	; 0x100000
 8000668:	f04f 0e00 	mov.w	lr, #0
 800066c:	3c01      	subs	r4, #1
 800066e:	f300 80ab 	bgt.w	80007c8 <__aeabi_dmul+0x238>
 8000672:	f114 0f36 	cmn.w	r4, #54	; 0x36
 8000676:	bfde      	ittt	le
 8000678:	2000      	movle	r0, #0
 800067a:	f001 4100 	andle.w	r1, r1, #2147483648	; 0x80000000
 800067e:	bd70      	pople	{r4, r5, r6, pc}
 8000680:	f1c4 0400 	rsb	r4, r4, #0
 8000684:	3c20      	subs	r4, #32
 8000686:	da35      	bge.n	80006f4 <__aeabi_dmul+0x164>
 8000688:	340c      	adds	r4, #12
 800068a:	dc1b      	bgt.n	80006c4 <__aeabi_dmul+0x134>
 800068c:	f104 0414 	add.w	r4, r4, #20
 8000690:	f1c4 0520 	rsb	r5, r4, #32
 8000694:	fa00 f305 	lsl.w	r3, r0, r5
 8000698:	fa20 f004 	lsr.w	r0, r0, r4
 800069c:	fa01 f205 	lsl.w	r2, r1, r5
 80006a0:	ea40 0002 	orr.w	r0, r0, r2
 80006a4:	f001 4200 	and.w	r2, r1, #2147483648	; 0x80000000
 80006a8:	f021 4100 	bic.w	r1, r1, #2147483648	; 0x80000000
 80006ac:	eb10 70d3 	adds.w	r0, r0, r3, lsr #31
 80006b0:	fa21 f604 	lsr.w	r6, r1, r4
 80006b4:	eb42 0106 	adc.w	r1, r2, r6
 80006b8:	ea5e 0e43 	orrs.w	lr, lr, r3, lsl #1
 80006bc:	bf08      	it	eq
 80006be:	ea20 70d3 	biceq.w	r0, r0, r3, lsr #31
 80006c2:	bd70      	pop	{r4, r5, r6, pc}
 80006c4:	f1c4 040c 	rsb	r4, r4, #12
 80006c8:	f1c4 0520 	rsb	r5, r4, #32
 80006cc:	fa00 f304 	lsl.w	r3, r0, r4
 80006d0:	fa20 f005 	lsr.w	r0, r0, r5
 80006d4:	fa01 f204 	lsl.w	r2, r1, r4
 80006d8:	ea40 0002 	orr.w	r0, r0, r2
 80006dc:	f001 4100 	and.w	r1, r1, #2147483648	; 0x80000000
 80006e0:	eb10 70d3 	adds.w	r0, r0, r3, lsr #31
 80006e4:	f141 0100 	adc.w	r1, r1, #0
 80006e8:	ea5e 0e43 	orrs.w	lr, lr, r3, lsl #1
 80006ec:	bf08      	it	eq
 80006ee:	ea20 70d3 	biceq.w	r0, r0, r3, lsr #31
 80006f2:	bd70      	pop	{r4, r5, r6, pc}
 80006f4:	f1c4 0520 	rsb	r5, r4, #32
 80006f8:	fa00 f205 	lsl.w	r2, r0, r5
 80006fc:	ea4e 0e02 	orr.w	lr, lr, r2
 8000700:	fa20 f304 	lsr.w	r3, r0, r4
 8000704:	fa01 f205 	lsl.w	r2, r1, r5
 8000708:	ea43 0302 	orr.w	r3, r3, r2
 800070c:	fa21 f004 	lsr.w	r0, r1, r4
 8000710:	f001 4100 	and.w	r1, r1, #2147483648	; 0x80000000
 8000714:	fa21 f204 	lsr.w	r2, r1, r4
 8000718:	ea20 0002 	bic.w	r0, r0, r2
 800071c:	eb00 70d3 	add.w	r0, r0, r3, lsr #31
 8000720:	ea5e 0e43 	orrs.w	lr, lr, r3, lsl #1
 8000724:	bf08      	it	eq
 8000726:	ea20 70d3 	biceq.w	r0, r0, r3, lsr #31
 800072a:	bd70      	pop	{r4, r5, r6, pc}
 800072c:	f094 0f00 	teq	r4, #0
 8000730:	d10f      	bne.n	8000752 <__aeabi_dmul+0x1c2>
 8000732:	f001 4600 	and.w	r6, r1, #2147483648	; 0x80000000
 8000736:	0040      	lsls	r0, r0, #1
 8000738:	eb41 0101 	adc.w	r1, r1, r1
 800073c:	f411 1f80 	tst.w	r1, #1048576	; 0x100000
 8000740:	bf08      	it	eq
 8000742:	3c01      	subeq	r4, #1
 8000744:	d0f7      	beq.n	8000736 <__aeabi_dmul+0x1a6>
 8000746:	ea41 0106 	orr.w	r1, r1, r6
 800074a:	f095 0f00 	teq	r5, #0
 800074e:	bf18      	it	ne
 8000750:	4770      	bxne	lr
 8000752:	f003 4600 	and.w	r6, r3, #2147483648	; 0x80000000
 8000756:	0052      	lsls	r2, r2, #1
 8000758:	eb43 0303 	adc.w	r3, r3, r3
 800075c:	f413 1f80 	tst.w	r3, #1048576	; 0x100000
 8000760:	bf08      	it	eq
 8000762:	3d01      	subeq	r5, #1
 8000764:	d0f7      	beq.n	8000756 <__aeabi_dmul+0x1c6>
 8000766:	ea43 0306 	orr.w	r3, r3, r6
 800076a:	4770      	bx	lr
 800076c:	ea94 0f0c 	teq	r4, ip
 8000770:	ea0c 5513 	and.w	r5, ip, r3, lsr #20
 8000774:	bf18      	it	ne
 8000776:	ea95 0f0c 	teqne	r5, ip
 800077a:	d00c      	beq.n	8000796 <__aeabi_dmul+0x206>
 800077c:	ea50 0641 	orrs.w	r6, r0, r1, lsl #1
 8000780:	bf18      	it	ne
 8000782:	ea52 0643 	orrsne.w	r6, r2, r3, lsl #1
 8000786:	d1d1      	bne.n	800072c <__aeabi_dmul+0x19c>
 8000788:	ea81 0103 	eor.w	r1, r1, r3
 800078c:	f001 4100 	and.w	r1, r1, #2147483648	; 0x80000000
 8000790:	f04f 0000 	mov.w	r0, #0
 8000794:	bd70      	pop	{r4, r5, r6, pc}
 8000796:	ea50 0641 	orrs.w	r6, r0, r1, lsl #1
 800079a:	bf06      	itte	eq
 800079c:	4610      	moveq	r0, r2
 800079e:	4619      	moveq	r1, r3
 80007a0:	ea52 0643 	orrsne.w	r6, r2, r3, lsl #1
 80007a4:	d019      	beq.n	80007da <__aeabi_dmul+0x24a>
 80007a6:	ea94 0f0c 	teq	r4, ip
 80007aa:	d102      	bne.n	80007b2 <__aeabi_dmul+0x222>
 80007ac:	ea50 3601 	orrs.w	r6, r0, r1, lsl #12
 80007b0:	d113      	bne.n	80007da <__aeabi_dmul+0x24a>
 80007b2:	ea95 0f0c 	teq	r5, ip
 80007b6:	d105      	bne.n	80007c4 <__aeabi_dmul+0x234>
 80007b8:	ea52 3603 	orrs.w	r6, r2, r3, lsl #12
 80007bc:	bf1c      	itt	ne
 80007be:	4610      	movne	r0, r2
 80007c0:	4619      	movne	r1, r3
 80007c2:	d10a      	bne.n	80007da <__aeabi_dmul+0x24a>
 80007c4:	ea81 0103 	eor.w	r1, r1, r3
 80007c8:	f001 4100 	and.w	r1, r1, #2147483648	; 0x80000000
 80007cc:	f041 41fe 	orr.w	r1, r1, #2130706432	; 0x7f000000
 80007d0:	f441 0170 	orr.w	r1, r1, #15728640	; 0xf00000
 80007d4:	f04f 0000 	mov.w	r0, #0
 80007d8:	bd70      	pop	{r4, r5, r6, pc}
 80007da:	f041 41fe 	orr.w	r1, r1, #2130706432	; 0x7f000000
 80007de:	f441 0178 	orr.w	r1, r1, #16252928	; 0xf80000
 80007e2:	bd70      	pop	{r4, r5, r6, pc}

080007e4 <__aeabi_ddiv>:
 80007e4:	b570      	push	{r4, r5, r6, lr}
 80007e6:	f04f 0cff 	mov.w	ip, #255	; 0xff
 80007ea:	f44c 6ce0 	orr.w	ip, ip, #1792	; 0x700
 80007ee:	ea1c 5411 	ands.w	r4, ip, r1, lsr #20
 80007f2:	bf1d      	ittte	ne
 80007f4:	ea1c 5513 	andsne.w	r5, ip, r3, lsr #20
 80007f8:	ea94 0f0c 	teqne	r4, ip
 80007fc:	ea95 0f0c 	teqne	r5, ip
 8000800:	f000 f8a7 	bleq	8000952 <__aeabi_ddiv+0x16e>
 8000804:	eba4 0405 	sub.w	r4, r4, r5
 8000808:	ea81 0e03 	eor.w	lr, r1, r3
 800080c:	ea52 3503 	orrs.w	r5, r2, r3, lsl #12
 8000810:	ea4f 3101 	mov.w	r1, r1, lsl #12
 8000814:	f000 8088 	beq.w	8000928 <__aeabi_ddiv+0x144>
 8000818:	ea4f 3303 	mov.w	r3, r3, lsl #12
 800081c:	f04f 5580 	mov.w	r5, #268435456	; 0x10000000
 8000820:	ea45 1313 	orr.w	r3, r5, r3, lsr #4
 8000824:	ea43 6312 	orr.w	r3, r3, r2, lsr #24
 8000828:	ea4f 2202 	mov.w	r2, r2, lsl #8
 800082c:	ea45 1511 	orr.w	r5, r5, r1, lsr #4
 8000830:	ea45 6510 	orr.w	r5, r5, r0, lsr #24
 8000834:	ea4f 2600 	mov.w	r6, r0, lsl #8
 8000838:	f00e 4100 	and.w	r1, lr, #2147483648	; 0x80000000
 800083c:	429d      	cmp	r5, r3
 800083e:	bf08      	it	eq
 8000840:	4296      	cmpeq	r6, r2
 8000842:	f144 04fd 	adc.w	r4, r4, #253	; 0xfd
 8000846:	f504 7440 	add.w	r4, r4, #768	; 0x300
 800084a:	d202      	bcs.n	8000852 <__aeabi_ddiv+0x6e>
 800084c:	085b      	lsrs	r3, r3, #1
 800084e:	ea4f 0232 	mov.w	r2, r2, rrx
 8000852:	1ab6      	subs	r6, r6, r2
 8000854:	eb65 0503 	sbc.w	r5, r5, r3
 8000858:	085b      	lsrs	r3, r3, #1
 800085a:	ea4f 0232 	mov.w	r2, r2, rrx
 800085e:	f44f 1080 	mov.w	r0, #1048576	; 0x100000
 8000862:	f44f 2c00 	mov.w	ip, #524288	; 0x80000
 8000866:	ebb6 0e02 	subs.w	lr, r6, r2
 800086a:	eb75 0e03 	sbcs.w	lr, r5, r3
 800086e:	bf22      	ittt	cs
 8000870:	1ab6      	subcs	r6, r6, r2
 8000872:	4675      	movcs	r5, lr
 8000874:	ea40 000c 	orrcs.w	r0, r0, ip
 8000878:	085b      	lsrs	r3, r3, #1
 800087a:	ea4f 0232 	mov.w	r2, r2, rrx
 800087e:	ebb6 0e02 	subs.w	lr, r6, r2
 8000882:	eb75 0e03 	sbcs.w	lr, r5, r3
 8000886:	bf22      	ittt	cs
 8000888:	1ab6      	subcs	r6, r6, r2
 800088a:	4675      	movcs	r5, lr
 800088c:	ea40 005c 	orrcs.w	r0, r0, ip, lsr #1
 8000890:	085b      	lsrs	r3, r3, #1
 8000892:	ea4f 0232 	mov.w	r2, r2, rrx
 8000896:	ebb6 0e02 	subs.w	lr, r6, r2
 800089a:	eb75 0e03 	sbcs.w	lr, r5, r3
 800089e:	bf22      	ittt	cs
 80008a0:	1ab6      	subcs	r6, r6, r2
 80008a2:	4675      	movcs	r5, lr
 80008a4:	ea40 009c 	orrcs.w	r0, r0, ip, lsr #2
 80008a8:	085b      	lsrs	r3, r3, #1
 80008aa:	ea4f 0232 	mov.w	r2, r2, rrx
 80008ae:	ebb6 0e02 	subs.w	lr, r6, r2
 80008b2:	eb75 0e03 	sbcs.w	lr, r5, r3
 80008b6:	bf22      	ittt	cs
 80008b8:	1ab6      	subcs	r6, r6, r2
 80008ba:	4675      	movcs	r5, lr
 80008bc:	ea40 00dc 	orrcs.w	r0, r0, ip, lsr #3
 80008c0:	ea55 0e06 	orrs.w	lr, r5, r6
 80008c4:	d018      	beq.n	80008f8 <__aeabi_ddiv+0x114>
 80008c6:	ea4f 1505 	mov.w	r5, r5, lsl #4
 80008ca:	ea45 7516 	orr.w	r5, r5, r6, lsr #28
 80008ce:	ea4f 1606 	mov.w	r6, r6, lsl #4
 80008d2:	ea4f 03c3 	mov.w	r3, r3, lsl #3
 80008d6:	ea43 7352 	orr.w	r3, r3, r2, lsr #29
 80008da:	ea4f 02c2 	mov.w	r2, r2, lsl #3
 80008de:	ea5f 1c1c 	movs.w	ip, ip, lsr #4
 80008e2:	d1c0      	bne.n	8000866 <__aeabi_ddiv+0x82>
 80008e4:	f411 1f80 	tst.w	r1, #1048576	; 0x100000
 80008e8:	d10b      	bne.n	8000902 <__aeabi_ddiv+0x11e>
 80008ea:	ea41 0100 	orr.w	r1, r1, r0
 80008ee:	f04f 0000 	mov.w	r0, #0
 80008f2:	f04f 4c00 	mov.w	ip, #2147483648	; 0x80000000
 80008f6:	e7b6      	b.n	8000866 <__aeabi_ddiv+0x82>
 80008f8:	f411 1f80 	tst.w	r1, #1048576	; 0x100000
 80008fc:	bf04      	itt	eq
 80008fe:	4301      	orreq	r1, r0
 8000900:	2000      	moveq	r0, #0
 8000902:	f1b4 0cfd 	subs.w	ip, r4, #253	; 0xfd
 8000906:	bf88      	it	hi
 8000908:	f5bc 6fe0 	cmphi.w	ip, #1792	; 0x700
 800090c:	f63f aeaf 	bhi.w	800066e <__aeabi_dmul+0xde>
 8000910:	ebb5 0c03 	subs.w	ip, r5, r3
 8000914:	bf04      	itt	eq
 8000916:	ebb6 0c02 	subseq.w	ip, r6, r2
 800091a:	ea5f 0c50 	movseq.w	ip, r0, lsr #1
 800091e:	f150 0000 	adcs.w	r0, r0, #0
 8000922:	eb41 5104 	adc.w	r1, r1, r4, lsl #20
 8000926:	bd70      	pop	{r4, r5, r6, pc}
 8000928:	f00e 4e00 	and.w	lr, lr, #2147483648	; 0x80000000
 800092c:	ea4e 3111 	orr.w	r1, lr, r1, lsr #12
 8000930:	eb14 045c 	adds.w	r4, r4, ip, lsr #1
 8000934:	bfc2      	ittt	gt
 8000936:	ebd4 050c 	rsbsgt	r5, r4, ip
 800093a:	ea41 5104 	orrgt.w	r1, r1, r4, lsl #20
 800093e:	bd70      	popgt	{r4, r5, r6, pc}
 8000940:	f441 1180 	orr.w	r1, r1, #1048576	; 0x100000
 8000944:	f04f 0e00 	mov.w	lr, #0
 8000948:	3c01      	subs	r4, #1
 800094a:	e690      	b.n	800066e <__aeabi_dmul+0xde>
 800094c:	ea45 0e06 	orr.w	lr, r5, r6
 8000950:	e68d      	b.n	800066e <__aeabi_dmul+0xde>
 8000952:	ea0c 5513 	and.w	r5, ip, r3, lsr #20
 8000956:	ea94 0f0c 	teq	r4, ip
 800095a:	bf08      	it	eq
 800095c:	ea95 0f0c 	teqeq	r5, ip
 8000960:	f43f af3b 	beq.w	80007da <__aeabi_dmul+0x24a>
 8000964:	ea94 0f0c 	teq	r4, ip
 8000968:	d10a      	bne.n	8000980 <__aeabi_ddiv+0x19c>
 800096a:	ea50 3401 	orrs.w	r4, r0, r1, lsl #12
 800096e:	f47f af34 	bne.w	80007da <__aeabi_dmul+0x24a>
 8000972:	ea95 0f0c 	teq	r5, ip
 8000976:	f47f af25 	bne.w	80007c4 <__aeabi_dmul+0x234>
 800097a:	4610      	mov	r0, r2
 800097c:	4619      	mov	r1, r3
 800097e:	e72c      	b.n	80007da <__aeabi_dmul+0x24a>
 8000980:	ea95 0f0c 	teq	r5, ip
 8000984:	d106      	bne.n	8000994 <__aeabi_ddiv+0x1b0>
 8000986:	ea52 3503 	orrs.w	r5, r2, r3, lsl #12
 800098a:	f43f aefd 	beq.w	8000788 <__aeabi_dmul+0x1f8>
 800098e:	4610      	mov	r0, r2
 8000990:	4619      	mov	r1, r3
 8000992:	e722      	b.n	80007da <__aeabi_dmul+0x24a>
 8000994:	ea50 0641 	orrs.w	r6, r0, r1, lsl #1
 8000998:	bf18      	it	ne
 800099a:	ea52 0643 	orrsne.w	r6, r2, r3, lsl #1
 800099e:	f47f aec5 	bne.w	800072c <__aeabi_dmul+0x19c>
 80009a2:	ea50 0441 	orrs.w	r4, r0, r1, lsl #1
 80009a6:	f47f af0d 	bne.w	80007c4 <__aeabi_dmul+0x234>
 80009aa:	ea52 0543 	orrs.w	r5, r2, r3, lsl #1
 80009ae:	f47f aeeb 	bne.w	8000788 <__aeabi_dmul+0x1f8>
 80009b2:	e712      	b.n	80007da <__aeabi_dmul+0x24a>

080009b4 <__gedf2>:
 80009b4:	f04f 3cff 	mov.w	ip, #4294967295
 80009b8:	e006      	b.n	80009c8 <__cmpdf2+0x4>
 80009ba:	bf00      	nop

080009bc <__ledf2>:
 80009bc:	f04f 0c01 	mov.w	ip, #1
 80009c0:	e002      	b.n	80009c8 <__cmpdf2+0x4>
 80009c2:	bf00      	nop

080009c4 <__cmpdf2>:
 80009c4:	f04f 0c01 	mov.w	ip, #1
 80009c8:	f84d cd04 	str.w	ip, [sp, #-4]!
 80009cc:	ea4f 0c41 	mov.w	ip, r1, lsl #1
 80009d0:	ea7f 5c6c 	mvns.w	ip, ip, asr #21
 80009d4:	ea4f 0c43 	mov.w	ip, r3, lsl #1
 80009d8:	bf18      	it	ne
 80009da:	ea7f 5c6c 	mvnsne.w	ip, ip, asr #21
 80009de:	d01b      	beq.n	8000a18 <__cmpdf2+0x54>
 80009e0:	b001      	add	sp, #4
 80009e2:	ea50 0c41 	orrs.w	ip, r0, r1, lsl #1
 80009e6:	bf0c      	ite	eq
 80009e8:	ea52 0c43 	orrseq.w	ip, r2, r3, lsl #1
 80009ec:	ea91 0f03 	teqne	r1, r3
 80009f0:	bf02      	ittt	eq
 80009f2:	ea90 0f02 	teqeq	r0, r2
 80009f6:	2000      	moveq	r0, #0
 80009f8:	4770      	bxeq	lr
 80009fa:	f110 0f00 	cmn.w	r0, #0
 80009fe:	ea91 0f03 	teq	r1, r3
 8000a02:	bf58      	it	pl
 8000a04:	4299      	cmppl	r1, r3
 8000a06:	bf08      	it	eq
 8000a08:	4290      	cmpeq	r0, r2
 8000a0a:	bf2c      	ite	cs
 8000a0c:	17d8      	asrcs	r0, r3, #31
 8000a0e:	ea6f 70e3 	mvncc.w	r0, r3, asr #31
 8000a12:	f040 0001 	orr.w	r0, r0, #1
 8000a16:	4770      	bx	lr
 8000a18:	ea4f 0c41 	mov.w	ip, r1, lsl #1
 8000a1c:	ea7f 5c6c 	mvns.w	ip, ip, asr #21
 8000a20:	d102      	bne.n	8000a28 <__cmpdf2+0x64>
 8000a22:	ea50 3c01 	orrs.w	ip, r0, r1, lsl #12
 8000a26:	d107      	bne.n	8000a38 <__cmpdf2+0x74>
 8000a28:	ea4f 0c43 	mov.w	ip, r3, lsl #1
 8000a2c:	ea7f 5c6c 	mvns.w	ip, ip, asr #21
 8000a30:	d1d6      	bne.n	80009e0 <__cmpdf2+0x1c>
 8000a32:	ea52 3c03 	orrs.w	ip, r2, r3, lsl #12
 8000a36:	d0d3      	beq.n	80009e0 <__cmpdf2+0x1c>
 8000a38:	f85d 0b04 	ldr.w	r0, [sp], #4
 8000a3c:	4770      	bx	lr
 8000a3e:	bf00      	nop

08000a40 <__aeabi_cdrcmple>:
 8000a40:	4684      	mov	ip, r0
 8000a42:	4610      	mov	r0, r2
 8000a44:	4662      	mov	r2, ip
 8000a46:	468c      	mov	ip, r1
 8000a48:	4619      	mov	r1, r3
 8000a4a:	4663      	mov	r3, ip
 8000a4c:	e000      	b.n	8000a50 <__aeabi_cdcmpeq>
 8000a4e:	bf00      	nop

08000a50 <__aeabi_cdcmpeq>:
 8000a50:	b501      	push	{r0, lr}
 8000a52:	f7ff ffb7 	bl	80009c4 <__cmpdf2>
 8000a56:	2800      	cmp	r0, #0
 8000a58:	bf48      	it	mi
 8000a5a:	f110 0f00 	cmnmi.w	r0, #0
 8000a5e:	bd01      	pop	{r0, pc}

08000a60 <__aeabi_dcmpeq>:
 8000a60:	f84d ed08 	str.w	lr, [sp, #-8]!
 8000a64:	f7ff fff4 	bl	8000a50 <__aeabi_cdcmpeq>
 8000a68:	bf0c      	ite	eq
 8000a6a:	2001      	moveq	r0, #1
 8000a6c:	2000      	movne	r0, #0
 8000a6e:	f85d fb08 	ldr.w	pc, [sp], #8
 8000a72:	bf00      	nop

08000a74 <__aeabi_dcmplt>:
 8000a74:	f84d ed08 	str.w	lr, [sp, #-8]!
 8000a78:	f7ff ffea 	bl	8000a50 <__aeabi_cdcmpeq>
 8000a7c:	bf34      	ite	cc
 8000a7e:	2001      	movcc	r0, #1
 8000a80:	2000      	movcs	r0, #0
 8000a82:	f85d fb08 	ldr.w	pc, [sp], #8
 8000a86:	bf00      	nop

08000a88 <__aeabi_dcmple>:
 8000a88:	f84d ed08 	str.w	lr, [sp, #-8]!
 8000a8c:	f7ff ffe0 	bl	8000a50 <__aeabi_cdcmpeq>
 8000a90:	bf94      	ite	ls
 8000a92:	2001      	movls	r0, #1
 8000a94:	2000      	movhi	r0, #0
 8000a96:	f85d fb08 	ldr.w	pc, [sp], #8
 8000a9a:	bf00      	nop

08000a9c <__aeabi_dcmpge>:
 8000a9c:	f84d ed08 	str.w	lr, [sp, #-8]!
 8000aa0:	f7ff ffce 	bl	8000a40 <__aeabi_cdrcmple>
 8000aa4:	bf94      	ite	ls
 8000aa6:	2001      	movls	r0, #1
 8000aa8:	2000      	movhi	r0, #0
 8000aaa:	f85d fb08 	ldr.w	pc, [sp], #8
 8000aae:	bf00      	nop

08000ab0 <__aeabi_dcmpgt>:
 8000ab0:	f84d ed08 	str.w	lr, [sp, #-8]!
 8000ab4:	f7ff ffc4 	bl	8000a40 <__aeabi_cdrcmple>
 8000ab8:	bf34      	ite	cc
 8000aba:	2001      	movcc	r0, #1
 8000abc:	2000      	movcs	r0, #0
 8000abe:	f85d fb08 	ldr.w	pc, [sp], #8
 8000ac2:	bf00      	nop

08000ac4 <__aeabi_dcmpun>:
 8000ac4:	ea4f 0c41 	mov.w	ip, r1, lsl #1
 8000ac8:	ea7f 5c6c 	mvns.w	ip, ip, asr #21
 8000acc:	d102      	bne.n	8000ad4 <__aeabi_dcmpun+0x10>
 8000ace:	ea50 3c01 	orrs.w	ip, r0, r1, lsl #12
 8000ad2:	d10a      	bne.n	8000aea <__aeabi_dcmpun+0x26>
 8000ad4:	ea4f 0c43 	mov.w	ip, r3, lsl #1
 8000ad8:	ea7f 5c6c 	mvns.w	ip, ip, asr #21
 8000adc:	d102      	bne.n	8000ae4 <__aeabi_dcmpun+0x20>
 8000ade:	ea52 3c03 	orrs.w	ip, r2, r3, lsl #12
 8000ae2:	d102      	bne.n	8000aea <__aeabi_dcmpun+0x26>
 8000ae4:	f04f 0000 	mov.w	r0, #0
 8000ae8:	4770      	bx	lr
 8000aea:	f04f 0001 	mov.w	r0, #1
 8000aee:	4770      	bx	lr

08000af0 <__aeabi_d2uiz>:
 8000af0:	004a      	lsls	r2, r1, #1
 8000af2:	d211      	bcs.n	8000b18 <__aeabi_d2uiz+0x28>
 8000af4:	f512 1200 	adds.w	r2, r2, #2097152	; 0x200000
 8000af8:	d211      	bcs.n	8000b1e <__aeabi_d2uiz+0x2e>
 8000afa:	d50d      	bpl.n	8000b18 <__aeabi_d2uiz+0x28>
 8000afc:	f46f 7378 	mvn.w	r3, #992	; 0x3e0
 8000b00:	ebb3 5262 	subs.w	r2, r3, r2, asr #21
 8000b04:	d40e      	bmi.n	8000b24 <__aeabi_d2uiz+0x34>
 8000b06:	ea4f 23c1 	mov.w	r3, r1, lsl #11
 8000b0a:	f043 4300 	orr.w	r3, r3, #2147483648	; 0x80000000
 8000b0e:	ea43 5350 	orr.w	r3, r3, r0, lsr #21
 8000b12:	fa23 f002 	lsr.w	r0, r3, r2
 8000b16:	4770      	bx	lr
 8000b18:	f04f 0000 	mov.w	r0, #0
 8000b1c:	4770      	bx	lr
 8000b1e:	ea50 3001 	orrs.w	r0, r0, r1, lsl #12
 8000b22:	d102      	bne.n	8000b2a <__aeabi_d2uiz+0x3a>
 8000b24:	f04f 30ff 	mov.w	r0, #4294967295
 8000b28:	4770      	bx	lr
 8000b2a:	f04f 0000 	mov.w	r0, #0
 8000b2e:	4770      	bx	lr

08000b30 <__aeabi_frsub>:
 8000b30:	f080 4000 	eor.w	r0, r0, #2147483648	; 0x80000000
 8000b34:	e002      	b.n	8000b3c <__addsf3>
 8000b36:	bf00      	nop

08000b38 <__aeabi_fsub>:
 8000b38:	f081 4100 	eor.w	r1, r1, #2147483648	; 0x80000000

08000b3c <__addsf3>:
 8000b3c:	0042      	lsls	r2, r0, #1
 8000b3e:	bf1f      	itttt	ne
 8000b40:	ea5f 0341 	movsne.w	r3, r1, lsl #1
 8000b44:	ea92 0f03 	teqne	r2, r3
 8000b48:	ea7f 6c22 	mvnsne.w	ip, r2, asr #24
 8000b4c:	ea7f 6c23 	mvnsne.w	ip, r3, asr #24
 8000b50:	d06a      	beq.n	8000c28 <__addsf3+0xec>
 8000b52:	ea4f 6212 	mov.w	r2, r2, lsr #24
 8000b56:	ebd2 6313 	rsbs	r3, r2, r3, lsr #24
 8000b5a:	bfc1      	itttt	gt
 8000b5c:	18d2      	addgt	r2, r2, r3
 8000b5e:	4041      	eorgt	r1, r0
 8000b60:	4048      	eorgt	r0, r1
 8000b62:	4041      	eorgt	r1, r0
 8000b64:	bfb8      	it	lt
 8000b66:	425b      	neglt	r3, r3
 8000b68:	2b19      	cmp	r3, #25
 8000b6a:	bf88      	it	hi
 8000b6c:	4770      	bxhi	lr
 8000b6e:	f010 4f00 	tst.w	r0, #2147483648	; 0x80000000
 8000b72:	f440 0000 	orr.w	r0, r0, #8388608	; 0x800000
 8000b76:	f020 407f 	bic.w	r0, r0, #4278190080	; 0xff000000
 8000b7a:	bf18      	it	ne
 8000b7c:	4240      	negne	r0, r0
 8000b7e:	f011 4f00 	tst.w	r1, #2147483648	; 0x80000000
 8000b82:	f441 0100 	orr.w	r1, r1, #8388608	; 0x800000
 8000b86:	f021 417f 	bic.w	r1, r1, #4278190080	; 0xff000000
 8000b8a:	bf18      	it	ne
 8000b8c:	4249      	negne	r1, r1
 8000b8e:	ea92 0f03 	teq	r2, r3
 8000b92:	d03f      	beq.n	8000c14 <__addsf3+0xd8>
 8000b94:	f1a2 0201 	sub.w	r2, r2, #1
 8000b98:	fa41 fc03 	asr.w	ip, r1, r3
 8000b9c:	eb10 000c 	adds.w	r0, r0, ip
 8000ba0:	f1c3 0320 	rsb	r3, r3, #32
 8000ba4:	fa01 f103 	lsl.w	r1, r1, r3
 8000ba8:	f000 4300 	and.w	r3, r0, #2147483648	; 0x80000000
 8000bac:	d502      	bpl.n	8000bb4 <__addsf3+0x78>
 8000bae:	4249      	negs	r1, r1
 8000bb0:	eb60 0040 	sbc.w	r0, r0, r0, lsl #1
 8000bb4:	f5b0 0f00 	cmp.w	r0, #8388608	; 0x800000
 8000bb8:	d313      	bcc.n	8000be2 <__addsf3+0xa6>
 8000bba:	f1b0 7f80 	cmp.w	r0, #16777216	; 0x1000000
 8000bbe:	d306      	bcc.n	8000bce <__addsf3+0x92>
 8000bc0:	0840      	lsrs	r0, r0, #1
 8000bc2:	ea4f 0131 	mov.w	r1, r1, rrx
 8000bc6:	f102 0201 	add.w	r2, r2, #1
 8000bca:	2afe      	cmp	r2, #254	; 0xfe
 8000bcc:	d251      	bcs.n	8000c72 <__addsf3+0x136>
 8000bce:	f1b1 4f00 	cmp.w	r1, #2147483648	; 0x80000000
 8000bd2:	eb40 50c2 	adc.w	r0, r0, r2, lsl #23
 8000bd6:	bf08      	it	eq
 8000bd8:	f020 0001 	biceq.w	r0, r0, #1
 8000bdc:	ea40 0003 	orr.w	r0, r0, r3
 8000be0:	4770      	bx	lr
 8000be2:	0049      	lsls	r1, r1, #1
 8000be4:	eb40 0000 	adc.w	r0, r0, r0
 8000be8:	f410 0f00 	tst.w	r0, #8388608	; 0x800000
 8000bec:	f1a2 0201 	sub.w	r2, r2, #1
 8000bf0:	d1ed      	bne.n	8000bce <__addsf3+0x92>
 8000bf2:	fab0 fc80 	clz	ip, r0
 8000bf6:	f1ac 0c08 	sub.w	ip, ip, #8
 8000bfa:	ebb2 020c 	subs.w	r2, r2, ip
 8000bfe:	fa00 f00c 	lsl.w	r0, r0, ip
 8000c02:	bfaa      	itet	ge
 8000c04:	eb00 50c2 	addge.w	r0, r0, r2, lsl #23
 8000c08:	4252      	neglt	r2, r2
 8000c0a:	4318      	orrge	r0, r3
 8000c0c:	bfbc      	itt	lt
 8000c0e:	40d0      	lsrlt	r0, r2
 8000c10:	4318      	orrlt	r0, r3
 8000c12:	4770      	bx	lr
 8000c14:	f092 0f00 	teq	r2, #0
 8000c18:	f481 0100 	eor.w	r1, r1, #8388608	; 0x800000
 8000c1c:	bf06      	itte	eq
 8000c1e:	f480 0000 	eoreq.w	r0, r0, #8388608	; 0x800000
 8000c22:	3201      	addeq	r2, #1
 8000c24:	3b01      	subne	r3, #1
 8000c26:	e7b5      	b.n	8000b94 <__addsf3+0x58>
 8000c28:	ea4f 0341 	mov.w	r3, r1, lsl #1
 8000c2c:	ea7f 6c22 	mvns.w	ip, r2, asr #24
 8000c30:	bf18      	it	ne
 8000c32:	ea7f 6c23 	mvnsne.w	ip, r3, asr #24
 8000c36:	d021      	beq.n	8000c7c <__addsf3+0x140>
 8000c38:	ea92 0f03 	teq	r2, r3
 8000c3c:	d004      	beq.n	8000c48 <__addsf3+0x10c>
 8000c3e:	f092 0f00 	teq	r2, #0
 8000c42:	bf08      	it	eq
 8000c44:	4608      	moveq	r0, r1
 8000c46:	4770      	bx	lr
 8000c48:	ea90 0f01 	teq	r0, r1
 8000c4c:	bf1c      	itt	ne
 8000c4e:	2000      	movne	r0, #0
 8000c50:	4770      	bxne	lr
 8000c52:	f012 4f7f 	tst.w	r2, #4278190080	; 0xff000000
 8000c56:	d104      	bne.n	8000c62 <__addsf3+0x126>
 8000c58:	0040      	lsls	r0, r0, #1
 8000c5a:	bf28      	it	cs
 8000c5c:	f040 4000 	orrcs.w	r0, r0, #2147483648	; 0x80000000
 8000c60:	4770      	bx	lr
 8000c62:	f112 7200 	adds.w	r2, r2, #33554432	; 0x2000000
 8000c66:	bf3c      	itt	cc
 8000c68:	f500 0000 	addcc.w	r0, r0, #8388608	; 0x800000
 8000c6c:	4770      	bxcc	lr
 8000c6e:	f000 4300 	and.w	r3, r0, #2147483648	; 0x80000000
 8000c72:	f043 40fe 	orr.w	r0, r3, #2130706432	; 0x7f000000
 8000c76:	f440 0000 	orr.w	r0, r0, #8388608	; 0x800000
 8000c7a:	4770      	bx	lr
 8000c7c:	ea7f 6222 	mvns.w	r2, r2, asr #24
 8000c80:	bf16      	itet	ne
 8000c82:	4608      	movne	r0, r1
 8000c84:	ea7f 6323 	mvnseq.w	r3, r3, asr #24
 8000c88:	4601      	movne	r1, r0
 8000c8a:	0242      	lsls	r2, r0, #9
 8000c8c:	bf06      	itte	eq
 8000c8e:	ea5f 2341 	movseq.w	r3, r1, lsl #9
 8000c92:	ea90 0f01 	teqeq	r0, r1
 8000c96:	f440 0080 	orrne.w	r0, r0, #4194304	; 0x400000
 8000c9a:	4770      	bx	lr

08000c9c <__aeabi_ui2f>:
 8000c9c:	f04f 0300 	mov.w	r3, #0
 8000ca0:	e004      	b.n	8000cac <__aeabi_i2f+0x8>
 8000ca2:	bf00      	nop

08000ca4 <__aeabi_i2f>:
 8000ca4:	f010 4300 	ands.w	r3, r0, #2147483648	; 0x80000000
 8000ca8:	bf48      	it	mi
 8000caa:	4240      	negmi	r0, r0
 8000cac:	ea5f 0c00 	movs.w	ip, r0
 8000cb0:	bf08      	it	eq
 8000cb2:	4770      	bxeq	lr
 8000cb4:	f043 4396 	orr.w	r3, r3, #1258291200	; 0x4b000000
 8000cb8:	4601      	mov	r1, r0
 8000cba:	f04f 0000 	mov.w	r0, #0
 8000cbe:	e01c      	b.n	8000cfa <__aeabi_l2f+0x2a>

08000cc0 <__aeabi_ul2f>:
 8000cc0:	ea50 0201 	orrs.w	r2, r0, r1
 8000cc4:	bf08      	it	eq
 8000cc6:	4770      	bxeq	lr
 8000cc8:	f04f 0300 	mov.w	r3, #0
 8000ccc:	e00a      	b.n	8000ce4 <__aeabi_l2f+0x14>
 8000cce:	bf00      	nop

08000cd0 <__aeabi_l2f>:
 8000cd0:	ea50 0201 	orrs.w	r2, r0, r1
 8000cd4:	bf08      	it	eq
 8000cd6:	4770      	bxeq	lr
 8000cd8:	f011 4300 	ands.w	r3, r1, #2147483648	; 0x80000000
 8000cdc:	d502      	bpl.n	8000ce4 <__aeabi_l2f+0x14>
 8000cde:	4240      	negs	r0, r0
 8000ce0:	eb61 0141 	sbc.w	r1, r1, r1, lsl #1
 8000ce4:	ea5f 0c01 	movs.w	ip, r1
 8000ce8:	bf02      	ittt	eq
 8000cea:	4684      	moveq	ip, r0
 8000cec:	4601      	moveq	r1, r0
 8000cee:	2000      	moveq	r0, #0
 8000cf0:	f043 43b6 	orr.w	r3, r3, #1526726656	; 0x5b000000
 8000cf4:	bf08      	it	eq
 8000cf6:	f1a3 5380 	subeq.w	r3, r3, #268435456	; 0x10000000
 8000cfa:	f5a3 0300 	sub.w	r3, r3, #8388608	; 0x800000
 8000cfe:	fabc f28c 	clz	r2, ip
 8000d02:	3a08      	subs	r2, #8
 8000d04:	eba3 53c2 	sub.w	r3, r3, r2, lsl #23
 8000d08:	db10      	blt.n	8000d2c <__aeabi_l2f+0x5c>
 8000d0a:	fa01 fc02 	lsl.w	ip, r1, r2
 8000d0e:	4463      	add	r3, ip
 8000d10:	fa00 fc02 	lsl.w	ip, r0, r2
 8000d14:	f1c2 0220 	rsb	r2, r2, #32
 8000d18:	f1bc 4f00 	cmp.w	ip, #2147483648	; 0x80000000
 8000d1c:	fa20 f202 	lsr.w	r2, r0, r2
 8000d20:	eb43 0002 	adc.w	r0, r3, r2
 8000d24:	bf08      	it	eq
 8000d26:	f020 0001 	biceq.w	r0, r0, #1
 8000d2a:	4770      	bx	lr
 8000d2c:	f102 0220 	add.w	r2, r2, #32
 8000d30:	fa01 fc02 	lsl.w	ip, r1, r2
 8000d34:	f1c2 0220 	rsb	r2, r2, #32
 8000d38:	ea50 004c 	orrs.w	r0, r0, ip, lsl #1
 8000d3c:	fa21 f202 	lsr.w	r2, r1, r2
 8000d40:	eb43 0002 	adc.w	r0, r3, r2
 8000d44:	bf08      	it	eq
 8000d46:	ea20 70dc 	biceq.w	r0, r0, ip, lsr #31
 8000d4a:	4770      	bx	lr

08000d4c <__aeabi_fmul>:
 8000d4c:	f04f 0cff 	mov.w	ip, #255	; 0xff
 8000d50:	ea1c 52d0 	ands.w	r2, ip, r0, lsr #23
 8000d54:	bf1e      	ittt	ne
 8000d56:	ea1c 53d1 	andsne.w	r3, ip, r1, lsr #23
 8000d5a:	ea92 0f0c 	teqne	r2, ip
 8000d5e:	ea93 0f0c 	teqne	r3, ip
 8000d62:	d06f      	beq.n	8000e44 <__aeabi_fmul+0xf8>
 8000d64:	441a      	add	r2, r3
 8000d66:	ea80 0c01 	eor.w	ip, r0, r1
 8000d6a:	0240      	lsls	r0, r0, #9
 8000d6c:	bf18      	it	ne
 8000d6e:	ea5f 2141 	movsne.w	r1, r1, lsl #9
 8000d72:	d01e      	beq.n	8000db2 <__aeabi_fmul+0x66>
 8000d74:	f04f 6300 	mov.w	r3, #134217728	; 0x8000000
 8000d78:	ea43 1050 	orr.w	r0, r3, r0, lsr #5
 8000d7c:	ea43 1151 	orr.w	r1, r3, r1, lsr #5
 8000d80:	fba0 3101 	umull	r3, r1, r0, r1
 8000d84:	f00c 4000 	and.w	r0, ip, #2147483648	; 0x80000000
 8000d88:	f5b1 0f00 	cmp.w	r1, #8388608	; 0x800000
 8000d8c:	bf3e      	ittt	cc
 8000d8e:	0049      	lslcc	r1, r1, #1
 8000d90:	ea41 71d3 	orrcc.w	r1, r1, r3, lsr #31
 8000d94:	005b      	lslcc	r3, r3, #1
 8000d96:	ea40 0001 	orr.w	r0, r0, r1
 8000d9a:	f162 027f 	sbc.w	r2, r2, #127	; 0x7f
 8000d9e:	2afd      	cmp	r2, #253	; 0xfd
 8000da0:	d81d      	bhi.n	8000dde <__aeabi_fmul+0x92>
 8000da2:	f1b3 4f00 	cmp.w	r3, #2147483648	; 0x80000000
 8000da6:	eb40 50c2 	adc.w	r0, r0, r2, lsl #23
 8000daa:	bf08      	it	eq
 8000dac:	f020 0001 	biceq.w	r0, r0, #1
 8000db0:	4770      	bx	lr
 8000db2:	f090 0f00 	teq	r0, #0
 8000db6:	f00c 4c00 	and.w	ip, ip, #2147483648	; 0x80000000
 8000dba:	bf08      	it	eq
 8000dbc:	0249      	lsleq	r1, r1, #9
 8000dbe:	ea4c 2050 	orr.w	r0, ip, r0, lsr #9
 8000dc2:	ea40 2051 	orr.w	r0, r0, r1, lsr #9
 8000dc6:	3a7f      	subs	r2, #127	; 0x7f
 8000dc8:	bfc2      	ittt	gt
 8000dca:	f1d2 03ff 	rsbsgt	r3, r2, #255	; 0xff
 8000dce:	ea40 50c2 	orrgt.w	r0, r0, r2, lsl #23
 8000dd2:	4770      	bxgt	lr
 8000dd4:	f440 0000 	orr.w	r0, r0, #8388608	; 0x800000
 8000dd8:	f04f 0300 	mov.w	r3, #0
 8000ddc:	3a01      	subs	r2, #1
 8000dde:	dc5d      	bgt.n	8000e9c <__aeabi_fmul+0x150>
 8000de0:	f112 0f19 	cmn.w	r2, #25
 8000de4:	bfdc      	itt	le
 8000de6:	f000 4000 	andle.w	r0, r0, #2147483648	; 0x80000000
 8000dea:	4770      	bxle	lr
 8000dec:	f1c2 0200 	rsb	r2, r2, #0
 8000df0:	0041      	lsls	r1, r0, #1
 8000df2:	fa21 f102 	lsr.w	r1, r1, r2
 8000df6:	f1c2 0220 	rsb	r2, r2, #32
 8000dfa:	fa00 fc02 	lsl.w	ip, r0, r2
 8000dfe:	ea5f 0031 	movs.w	r0, r1, rrx
 8000e02:	f140 0000 	adc.w	r0, r0, #0
 8000e06:	ea53 034c 	orrs.w	r3, r3, ip, lsl #1
 8000e0a:	bf08      	it	eq
 8000e0c:	ea20 70dc 	biceq.w	r0, r0, ip, lsr #31
 8000e10:	4770      	bx	lr
 8000e12:	f092 0f00 	teq	r2, #0
 8000e16:	f000 4c00 	and.w	ip, r0, #2147483648	; 0x80000000
 8000e1a:	bf02      	ittt	eq
 8000e1c:	0040      	lsleq	r0, r0, #1
 8000e1e:	f410 0f00 	tsteq.w	r0, #8388608	; 0x800000
 8000e22:	3a01      	subeq	r2, #1
 8000e24:	d0f9      	beq.n	8000e1a <__aeabi_fmul+0xce>
 8000e26:	ea40 000c 	orr.w	r0, r0, ip
 8000e2a:	f093 0f00 	teq	r3, #0
 8000e2e:	f001 4c00 	and.w	ip, r1, #2147483648	; 0x80000000
 8000e32:	bf02      	ittt	eq
 8000e34:	0049      	lsleq	r1, r1, #1
 8000e36:	f411 0f00 	tsteq.w	r1, #8388608	; 0x800000
 8000e3a:	3b01      	subeq	r3, #1
 8000e3c:	d0f9      	beq.n	8000e32 <__aeabi_fmul+0xe6>
 8000e3e:	ea41 010c 	orr.w	r1, r1, ip
 8000e42:	e78f      	b.n	8000d64 <__aeabi_fmul+0x18>
 8000e44:	ea0c 53d1 	and.w	r3, ip, r1, lsr #23
 8000e48:	ea92 0f0c 	teq	r2, ip
 8000e4c:	bf18      	it	ne
 8000e4e:	ea93 0f0c 	teqne	r3, ip
 8000e52:	d00a      	beq.n	8000e6a <__aeabi_fmul+0x11e>
 8000e54:	f030 4c00 	bics.w	ip, r0, #2147483648	; 0x80000000
 8000e58:	bf18      	it	ne
 8000e5a:	f031 4c00 	bicsne.w	ip, r1, #2147483648	; 0x80000000
 8000e5e:	d1d8      	bne.n	8000e12 <__aeabi_fmul+0xc6>
 8000e60:	ea80 0001 	eor.w	r0, r0, r1
 8000e64:	f000 4000 	and.w	r0, r0, #2147483648	; 0x80000000
 8000e68:	4770      	bx	lr
 8000e6a:	f090 0f00 	teq	r0, #0
 8000e6e:	bf17      	itett	ne
 8000e70:	f090 4f00 	teqne	r0, #2147483648	; 0x80000000
 8000e74:	4608      	moveq	r0, r1
 8000e76:	f091 0f00 	teqne	r1, #0
 8000e7a:	f091 4f00 	teqne	r1, #2147483648	; 0x80000000
 8000e7e:	d014      	beq.n	8000eaa <__aeabi_fmul+0x15e>
 8000e80:	ea92 0f0c 	teq	r2, ip
 8000e84:	d101      	bne.n	8000e8a <__aeabi_fmul+0x13e>
 8000e86:	0242      	lsls	r2, r0, #9
 8000e88:	d10f      	bne.n	8000eaa <__aeabi_fmul+0x15e>
 8000e8a:	ea93 0f0c 	teq	r3, ip
 8000e8e:	d103      	bne.n	8000e98 <__aeabi_fmul+0x14c>
 8000e90:	024b      	lsls	r3, r1, #9
 8000e92:	bf18      	it	ne
 8000e94:	4608      	movne	r0, r1
 8000e96:	d108      	bne.n	8000eaa <__aeabi_fmul+0x15e>
 8000e98:	ea80 0001 	eor.w	r0, r0, r1
 8000e9c:	f000 4000 	and.w	r0, r0, #2147483648	; 0x80000000
 8000ea0:	f040 40fe 	orr.w	r0, r0, #2130706432	; 0x7f000000
 8000ea4:	f440 0000 	orr.w	r0, r0, #8388608	; 0x800000
 8000ea8:	4770      	bx	lr
 8000eaa:	f040 40fe 	orr.w	r0, r0, #2130706432	; 0x7f000000
 8000eae:	f440 0040 	orr.w	r0, r0, #12582912	; 0xc00000
 8000eb2:	4770      	bx	lr

08000eb4 <__aeabi_fdiv>:
 8000eb4:	f04f 0cff 	mov.w	ip, #255	; 0xff
 8000eb8:	ea1c 52d0 	ands.w	r2, ip, r0, lsr #23
 8000ebc:	bf1e      	ittt	ne
 8000ebe:	ea1c 53d1 	andsne.w	r3, ip, r1, lsr #23
 8000ec2:	ea92 0f0c 	teqne	r2, ip
 8000ec6:	ea93 0f0c 	teqne	r3, ip
 8000eca:	d069      	beq.n	8000fa0 <__aeabi_fdiv+0xec>
 8000ecc:	eba2 0203 	sub.w	r2, r2, r3
 8000ed0:	ea80 0c01 	eor.w	ip, r0, r1
 8000ed4:	0249      	lsls	r1, r1, #9
 8000ed6:	ea4f 2040 	mov.w	r0, r0, lsl #9
 8000eda:	d037      	beq.n	8000f4c <__aeabi_fdiv+0x98>
 8000edc:	f04f 5380 	mov.w	r3, #268435456	; 0x10000000
 8000ee0:	ea43 1111 	orr.w	r1, r3, r1, lsr #4
 8000ee4:	ea43 1310 	orr.w	r3, r3, r0, lsr #4
 8000ee8:	f00c 4000 	and.w	r0, ip, #2147483648	; 0x80000000
 8000eec:	428b      	cmp	r3, r1
 8000eee:	bf38      	it	cc
 8000ef0:	005b      	lslcc	r3, r3, #1
 8000ef2:	f142 027d 	adc.w	r2, r2, #125	; 0x7d
 8000ef6:	f44f 0c00 	mov.w	ip, #8388608	; 0x800000
 8000efa:	428b      	cmp	r3, r1
 8000efc:	bf24      	itt	cs
 8000efe:	1a5b      	subcs	r3, r3, r1
 8000f00:	ea40 000c 	orrcs.w	r0, r0, ip
 8000f04:	ebb3 0f51 	cmp.w	r3, r1, lsr #1
 8000f08:	bf24      	itt	cs
 8000f0a:	eba3 0351 	subcs.w	r3, r3, r1, lsr #1
 8000f0e:	ea40 005c 	orrcs.w	r0, r0, ip, lsr #1
 8000f12:	ebb3 0f91 	cmp.w	r3, r1, lsr #2
 8000f16:	bf24      	itt	cs
 8000f18:	eba3 0391 	subcs.w	r3, r3, r1, lsr #2
 8000f1c:	ea40 009c 	orrcs.w	r0, r0, ip, lsr #2
 8000f20:	ebb3 0fd1 	cmp.w	r3, r1, lsr #3
 8000f24:	bf24      	itt	cs
 8000f26:	eba3 03d1 	subcs.w	r3, r3, r1, lsr #3
 8000f2a:	ea40 00dc 	orrcs.w	r0, r0, ip, lsr #3
 8000f2e:	011b      	lsls	r3, r3, #4
 8000f30:	bf18      	it	ne
 8000f32:	ea5f 1c1c 	movsne.w	ip, ip, lsr #4
 8000f36:	d1e0      	bne.n	8000efa <__aeabi_fdiv+0x46>
 8000f38:	2afd      	cmp	r2, #253	; 0xfd
 8000f3a:	f63f af50 	bhi.w	8000dde <__aeabi_fmul+0x92>
 8000f3e:	428b      	cmp	r3, r1
 8000f40:	eb40 50c2 	adc.w	r0, r0, r2, lsl #23
 8000f44:	bf08      	it	eq
 8000f46:	f020 0001 	biceq.w	r0, r0, #1
 8000f4a:	4770      	bx	lr
 8000f4c:	f00c 4c00 	and.w	ip, ip, #2147483648	; 0x80000000
 8000f50:	ea4c 2050 	orr.w	r0, ip, r0, lsr #9
 8000f54:	327f      	adds	r2, #127	; 0x7f
 8000f56:	bfc2      	ittt	gt
 8000f58:	f1d2 03ff 	rsbsgt	r3, r2, #255	; 0xff
 8000f5c:	ea40 50c2 	orrgt.w	r0, r0, r2, lsl #23
 8000f60:	4770      	bxgt	lr
 8000f62:	f440 0000 	orr.w	r0, r0, #8388608	; 0x800000
 8000f66:	f04f 0300 	mov.w	r3, #0
 8000f6a:	3a01      	subs	r2, #1
 8000f6c:	e737      	b.n	8000dde <__aeabi_fmul+0x92>
 8000f6e:	f092 0f00 	teq	r2, #0
 8000f72:	f000 4c00 	and.w	ip, r0, #2147483648	; 0x80000000
 8000f76:	bf02      	ittt	eq
 8000f78:	0040      	lsleq	r0, r0, #1
 8000f7a:	f410 0f00 	tsteq.w	r0, #8388608	; 0x800000
 8000f7e:	3a01      	subeq	r2, #1
 8000f80:	d0f9      	beq.n	8000f76 <__aeabi_fdiv+0xc2>
 8000f82:	ea40 000c 	orr.w	r0, r0, ip
 8000f86:	f093 0f00 	teq	r3, #0
 8000f8a:	f001 4c00 	and.w	ip, r1, #2147483648	; 0x80000000
 8000f8e:	bf02      	ittt	eq
 8000f90:	0049      	lsleq	r1, r1, #1
 8000f92:	f411 0f00 	tsteq.w	r1, #8388608	; 0x800000
 8000f96:	3b01      	subeq	r3, #1
 8000f98:	d0f9      	beq.n	8000f8e <__aeabi_fdiv+0xda>
 8000f9a:	ea41 010c 	orr.w	r1, r1, ip
 8000f9e:	e795      	b.n	8000ecc <__aeabi_fdiv+0x18>
 8000fa0:	ea0c 53d1 	and.w	r3, ip, r1, lsr #23
 8000fa4:	ea92 0f0c 	teq	r2, ip
 8000fa8:	d108      	bne.n	8000fbc <__aeabi_fdiv+0x108>
 8000faa:	0242      	lsls	r2, r0, #9
 8000fac:	f47f af7d 	bne.w	8000eaa <__aeabi_fmul+0x15e>
 8000fb0:	ea93 0f0c 	teq	r3, ip
 8000fb4:	f47f af70 	bne.w	8000e98 <__aeabi_fmul+0x14c>
 8000fb8:	4608      	mov	r0, r1
 8000fba:	e776      	b.n	8000eaa <__aeabi_fmul+0x15e>
 8000fbc:	ea93 0f0c 	teq	r3, ip
 8000fc0:	d104      	bne.n	8000fcc <__aeabi_fdiv+0x118>
 8000fc2:	024b      	lsls	r3, r1, #9
 8000fc4:	f43f af4c 	beq.w	8000e60 <__aeabi_fmul+0x114>
 8000fc8:	4608      	mov	r0, r1
 8000fca:	e76e      	b.n	8000eaa <__aeabi_fmul+0x15e>
 8000fcc:	f030 4c00 	bics.w	ip, r0, #2147483648	; 0x80000000
 8000fd0:	bf18      	it	ne
 8000fd2:	f031 4c00 	bicsne.w	ip, r1, #2147483648	; 0x80000000
 8000fd6:	d1ca      	bne.n	8000f6e <__aeabi_fdiv+0xba>
 8000fd8:	f030 4200 	bics.w	r2, r0, #2147483648	; 0x80000000
 8000fdc:	f47f af5c 	bne.w	8000e98 <__aeabi_fmul+0x14c>
 8000fe0:	f031 4300 	bics.w	r3, r1, #2147483648	; 0x80000000
 8000fe4:	f47f af3c 	bne.w	8000e60 <__aeabi_fmul+0x114>
 8000fe8:	e75f      	b.n	8000eaa <__aeabi_fmul+0x15e>
 8000fea:	bf00      	nop

08000fec <HAL_InitTick>:
  *       implementation  in user file.
  * @param TickPriority Tick interrupt priority.
  * @retval HAL status
  */
__weak HAL_StatusTypeDef HAL_InitTick(uint32_t TickPriority)
{
 8000fec:	b538      	push	{r3, r4, r5, lr}
  /* Configure the SysTick to have interrupt in 1ms time basis*/
  if (HAL_SYSTICK_Config(SystemCoreClock / (1000U / uwTickFreq)) > 0U)
 8000fee:	4b0e      	ldr	r3, [pc, #56]	; (8001028 <HAL_InitTick+0x3c>)
{
 8000ff0:	4605      	mov	r5, r0
  if (HAL_SYSTICK_Config(SystemCoreClock / (1000U / uwTickFreq)) > 0U)
 8000ff2:	7818      	ldrb	r0, [r3, #0]
 8000ff4:	f44f 737a 	mov.w	r3, #1000	; 0x3e8
 8000ff8:	fbb3 f3f0 	udiv	r3, r3, r0
 8000ffc:	4a0b      	ldr	r2, [pc, #44]	; (800102c <HAL_InitTick+0x40>)
 8000ffe:	6810      	ldr	r0, [r2, #0]
 8001000:	fbb0 f0f3 	udiv	r0, r0, r3
 8001004:	f000 f89a 	bl	800113c <HAL_SYSTICK_Config>
 8001008:	4604      	mov	r4, r0
 800100a:	b958      	cbnz	r0, 8001024 <HAL_InitTick+0x38>
  {
    return HAL_ERROR;
  }

  /* Configure the SysTick IRQ priority */
  if (TickPriority < (1UL << __NVIC_PRIO_BITS))
 800100c:	2d0f      	cmp	r5, #15
 800100e:	d809      	bhi.n	8001024 <HAL_InitTick+0x38>
  {
    HAL_NVIC_SetPriority(SysTick_IRQn, TickPriority, 0U);
 8001010:	4602      	mov	r2, r0
 8001012:	4629      	mov	r1, r5
 8001014:	f04f 30ff 	mov.w	r0, #4294967295
 8001018:	f000 f84e 	bl	80010b8 <HAL_NVIC_SetPriority>
    uwTickPrio = TickPriority;
 800101c:	4b04      	ldr	r3, [pc, #16]	; (8001030 <HAL_InitTick+0x44>)
 800101e:	4620      	mov	r0, r4
 8001020:	601d      	str	r5, [r3, #0]
 8001022:	bd38      	pop	{r3, r4, r5, pc}
    return HAL_ERROR;
 8001024:	2001      	movs	r0, #1
    return HAL_ERROR;
  }

  /* Return function status */
  return HAL_OK;
}
 8001026:	bd38      	pop	{r3, r4, r5, pc}
 8001028:	20000000 	.word	0x20000000
 800102c:	2000001c 	.word	0x2000001c
 8001030:	20000004 	.word	0x20000004

08001034 <HAL_Init>:
{
 8001034:	b508      	push	{r3, lr}
  HAL_NVIC_SetPriorityGrouping(NVIC_PRIORITYGROUP_4);
 8001036:	2003      	movs	r0, #3
 8001038:	f000 f82c 	bl	8001094 <HAL_NVIC_SetPriorityGrouping>
  HAL_InitTick(TICK_INT_PRIORITY);
 800103c:	2000      	movs	r0, #0
 800103e:	f7ff ffd5 	bl	8000fec <HAL_InitTick>
  HAL_MspInit();
 8001042:	f001 fa49 	bl	80024d8 <HAL_MspInit>
}
 8001046:	2000      	movs	r0, #0
 8001048:	bd08      	pop	{r3, pc}
	...

0800104c <HAL_IncTick>:
  *      implementations in user file.
  * @retval None
  */
__weak void HAL_IncTick(void)
{
  uwTick += uwTickFreq;
 800104c:	4a03      	ldr	r2, [pc, #12]	; (800105c <HAL_IncTick+0x10>)
 800104e:	4b04      	ldr	r3, [pc, #16]	; (8001060 <HAL_IncTick+0x14>)
 8001050:	6811      	ldr	r1, [r2, #0]
 8001052:	781b      	ldrb	r3, [r3, #0]
 8001054:	440b      	add	r3, r1
 8001056:	6013      	str	r3, [r2, #0]
 8001058:	4770      	bx	lr
 800105a:	bf00      	nop
 800105c:	200000b4 	.word	0x200000b4
 8001060:	20000000 	.word	0x20000000

08001064 <HAL_GetTick>:
  *       implementations in user file.
  * @retval tick value
  */
__weak uint32_t HAL_GetTick(void)
{
  return uwTick;
 8001064:	4b01      	ldr	r3, [pc, #4]	; (800106c <HAL_GetTick+0x8>)
 8001066:	6818      	ldr	r0, [r3, #0]
}
 8001068:	4770      	bx	lr
 800106a:	bf00      	nop
 800106c:	200000b4 	.word	0x200000b4

08001070 <HAL_Delay>:
  *       implementations in user file.
  * @param Delay specifies the delay time length, in milliseconds.
  * @retval None
  */
__weak void HAL_Delay(uint32_t Delay)
{
 8001070:	b538      	push	{r3, r4, r5, lr}
 8001072:	4604      	mov	r4, r0
  uint32_t tickstart = HAL_GetTick();
 8001074:	f7ff fff6 	bl	8001064 <HAL_GetTick>
 8001078:	4605      	mov	r5, r0
  uint32_t wait = Delay;

  /* Add a freq to guarantee minimum wait */
  if (wait < HAL_MAX_DELAY)
 800107a:	1c63      	adds	r3, r4, #1
  {
    wait += (uint32_t)(uwTickFreq);
 800107c:	bf1e      	ittt	ne
 800107e:	4b04      	ldrne	r3, [pc, #16]	; (8001090 <HAL_Delay+0x20>)
 8001080:	781b      	ldrbne	r3, [r3, #0]
 8001082:	18e4      	addne	r4, r4, r3
  }

  while ((HAL_GetTick() - tickstart) < wait)
 8001084:	f7ff ffee 	bl	8001064 <HAL_GetTick>
 8001088:	1b40      	subs	r0, r0, r5
 800108a:	4284      	cmp	r4, r0
 800108c:	d8fa      	bhi.n	8001084 <HAL_Delay+0x14>
  {
  }
}
 800108e:	bd38      	pop	{r3, r4, r5, pc}
 8001090:	20000000 	.word	0x20000000

08001094 <HAL_NVIC_SetPriorityGrouping>:
__STATIC_INLINE void __NVIC_SetPriorityGrouping(uint32_t PriorityGroup)
{
  uint32_t reg_value;
  uint32_t PriorityGroupTmp = (PriorityGroup & (uint32_t)0x07UL);             /* only values 0..7 are used          */

  reg_value  =  SCB->AIRCR;                                                   /* read old register configuration    */
 8001094:	4a07      	ldr	r2, [pc, #28]	; (80010b4 <HAL_NVIC_SetPriorityGrouping+0x20>)
  reg_value &= ~((uint32_t)(SCB_AIRCR_VECTKEY_Msk | SCB_AIRCR_PRIGROUP_Msk)); /* clear bits to change               */
  reg_value  =  (reg_value                                   |
                ((uint32_t)0x5FAUL << SCB_AIRCR_VECTKEY_Pos) |
                (PriorityGroupTmp << SCB_AIRCR_PRIGROUP_Pos) );               /* Insert write key and priority group */
 8001096:	0200      	lsls	r0, r0, #8
  reg_value  =  SCB->AIRCR;                                                   /* read old register configuration    */
 8001098:	68d3      	ldr	r3, [r2, #12]
                (PriorityGroupTmp << SCB_AIRCR_PRIGROUP_Pos) );               /* Insert write key and priority group */
 800109a:	f400 60e0 	and.w	r0, r0, #1792	; 0x700
  reg_value &= ~((uint32_t)(SCB_AIRCR_VECTKEY_Msk | SCB_AIRCR_PRIGROUP_Msk)); /* clear bits to change               */
 800109e:	f423 63e0 	bic.w	r3, r3, #1792	; 0x700
 80010a2:	041b      	lsls	r3, r3, #16
 80010a4:	0c1b      	lsrs	r3, r3, #16
 80010a6:	f043 63bf 	orr.w	r3, r3, #100139008	; 0x5f80000
 80010aa:	f443 3300 	orr.w	r3, r3, #131072	; 0x20000
  reg_value  =  (reg_value                                   |
 80010ae:	4303      	orrs	r3, r0
  SCB->AIRCR =  reg_value;
 80010b0:	60d3      	str	r3, [r2, #12]
 80010b2:	4770      	bx	lr
 80010b4:	e000ed00 	.word	0xe000ed00

080010b8 <HAL_NVIC_SetPriority>:
  \details Reads the priority grouping field from the NVIC Interrupt Controller.
  \return                Priority grouping field (SCB->AIRCR [10:8] PRIGROUP field).
 */
__STATIC_INLINE uint32_t __NVIC_GetPriorityGrouping(void)
{
  return ((uint32_t)((SCB->AIRCR & SCB_AIRCR_PRIGROUP_Msk) >> SCB_AIRCR_PRIGROUP_Pos));
 80010b8:	4b17      	ldr	r3, [pc, #92]	; (8001118 <HAL_NVIC_SetPriority+0x60>)
  *         This parameter can be a value between 0 and 15
  *         A lower priority value indicates a higher priority.          
  * @retval None
  */
void HAL_NVIC_SetPriority(IRQn_Type IRQn, uint32_t PreemptPriority, uint32_t SubPriority)
{ 
 80010ba:	b530      	push	{r4, r5, lr}
 80010bc:	68dc      	ldr	r4, [r3, #12]
 80010be:	f3c4 2402 	ubfx	r4, r4, #8, #3
{
  uint32_t PriorityGroupTmp = (PriorityGroup & (uint32_t)0x07UL);   /* only values 0..7 are used          */
  uint32_t PreemptPriorityBits;
  uint32_t SubPriorityBits;

  PreemptPriorityBits = ((7UL - PriorityGroupTmp) > (uint32_t)(__NVIC_PRIO_BITS)) ? (uint32_t)(__NVIC_PRIO_BITS) : (uint32_t)(7UL - PriorityGroupTmp);
 80010c2:	f1c4 0307 	rsb	r3, r4, #7
  SubPriorityBits     = ((PriorityGroupTmp + (uint32_t)(__NVIC_PRIO_BITS)) < (uint32_t)7UL) ? (uint32_t)0UL : (uint32_t)((PriorityGroupTmp - 7UL) + (uint32_t)(__NVIC_PRIO_BITS));
 80010c6:	1d25      	adds	r5, r4, #4
  PreemptPriorityBits = ((7UL - PriorityGroupTmp) > (uint32_t)(__NVIC_PRIO_BITS)) ? (uint32_t)(__NVIC_PRIO_BITS) : (uint32_t)(7UL - PriorityGroupTmp);
 80010c8:	2b04      	cmp	r3, #4
 80010ca:	bf28      	it	cs
 80010cc:	2304      	movcs	r3, #4
  SubPriorityBits     = ((PriorityGroupTmp + (uint32_t)(__NVIC_PRIO_BITS)) < (uint32_t)7UL) ? (uint32_t)0UL : (uint32_t)((PriorityGroupTmp - 7UL) + (uint32_t)(__NVIC_PRIO_BITS));
 80010ce:	2d06      	cmp	r5, #6

  return (
           ((PreemptPriority & (uint32_t)((1UL << (PreemptPriorityBits)) - 1UL)) << SubPriorityBits) |
 80010d0:	f04f 0501 	mov.w	r5, #1
  SubPriorityBits     = ((PriorityGroupTmp + (uint32_t)(__NVIC_PRIO_BITS)) < (uint32_t)7UL) ? (uint32_t)0UL : (uint32_t)((PriorityGroupTmp - 7UL) + (uint32_t)(__NVIC_PRIO_BITS));
 80010d4:	bf98      	it	ls
 80010d6:	2400      	movls	r4, #0
           ((PreemptPriority & (uint32_t)((1UL << (PreemptPriorityBits)) - 1UL)) << SubPriorityBits) |
 80010d8:	fa05 f303 	lsl.w	r3, r5, r3
 80010dc:	f103 33ff 	add.w	r3, r3, #4294967295
  SubPriorityBits     = ((PriorityGroupTmp + (uint32_t)(__NVIC_PRIO_BITS)) < (uint32_t)7UL) ? (uint32_t)0UL : (uint32_t)((PriorityGroupTmp - 7UL) + (uint32_t)(__NVIC_PRIO_BITS));
 80010e0:	bf88      	it	hi
 80010e2:	3c03      	subhi	r4, #3
           ((PreemptPriority & (uint32_t)((1UL << (PreemptPriorityBits)) - 1UL)) << SubPriorityBits) |
 80010e4:	4019      	ands	r1, r3
 80010e6:	40a1      	lsls	r1, r4
           ((SubPriority     & (uint32_t)((1UL << (SubPriorityBits    )) - 1UL)))
 80010e8:	fa05 f404 	lsl.w	r4, r5, r4
 80010ec:	3c01      	subs	r4, #1
 80010ee:	4022      	ands	r2, r4
  if ((int32_t)(IRQn) >= 0)
 80010f0:	2800      	cmp	r0, #0
           ((PreemptPriority & (uint32_t)((1UL << (PreemptPriorityBits)) - 1UL)) << SubPriorityBits) |
 80010f2:	ea42 0201 	orr.w	r2, r2, r1
 80010f6:	ea4f 1202 	mov.w	r2, r2, lsl #4
    NVIC->IP[((uint32_t)IRQn)]               = (uint8_t)((priority << (8U - __NVIC_PRIO_BITS)) & (uint32_t)0xFFUL);
 80010fa:	bfa9      	itett	ge
 80010fc:	f100 4060 	addge.w	r0, r0, #3758096384	; 0xe0000000
    SCB->SHP[(((uint32_t)IRQn) & 0xFUL)-4UL] = (uint8_t)((priority << (8U - __NVIC_PRIO_BITS)) & (uint32_t)0xFFUL);
 8001100:	4b06      	ldrlt	r3, [pc, #24]	; (800111c <HAL_NVIC_SetPriority+0x64>)
    NVIC->IP[((uint32_t)IRQn)]               = (uint8_t)((priority << (8U - __NVIC_PRIO_BITS)) & (uint32_t)0xFFUL);
 8001102:	b2d2      	uxtbge	r2, r2
 8001104:	f500 4061 	addge.w	r0, r0, #57600	; 0xe100
    SCB->SHP[(((uint32_t)IRQn) & 0xFUL)-4UL] = (uint8_t)((priority << (8U - __NVIC_PRIO_BITS)) & (uint32_t)0xFFUL);
 8001108:	bfbb      	ittet	lt
 800110a:	f000 000f 	andlt.w	r0, r0, #15
 800110e:	b2d2      	uxtblt	r2, r2
    NVIC->IP[((uint32_t)IRQn)]               = (uint8_t)((priority << (8U - __NVIC_PRIO_BITS)) & (uint32_t)0xFFUL);
 8001110:	f880 2300 	strbge.w	r2, [r0, #768]	; 0x300
    SCB->SHP[(((uint32_t)IRQn) & 0xFUL)-4UL] = (uint8_t)((priority << (8U - __NVIC_PRIO_BITS)) & (uint32_t)0xFFUL);
 8001114:	541a      	strblt	r2, [r3, r0]
 8001116:	bd30      	pop	{r4, r5, pc}
 8001118:	e000ed00 	.word	0xe000ed00
 800111c:	e000ed14 	.word	0xe000ed14

08001120 <HAL_NVIC_EnableIRQ>:
  if ((int32_t)(IRQn) >= 0)
 8001120:	2800      	cmp	r0, #0
 8001122:	db08      	blt.n	8001136 <HAL_NVIC_EnableIRQ+0x16>
    NVIC->ISER[(((uint32_t)IRQn) >> 5UL)] = (uint32_t)(1UL << (((uint32_t)IRQn) & 0x1FUL));
 8001124:	2301      	movs	r3, #1
 8001126:	0942      	lsrs	r2, r0, #5
 8001128:	f000 001f 	and.w	r0, r0, #31
 800112c:	fa03 f000 	lsl.w	r0, r3, r0
 8001130:	4b01      	ldr	r3, [pc, #4]	; (8001138 <HAL_NVIC_EnableIRQ+0x18>)
 8001132:	f843 0022 	str.w	r0, [r3, r2, lsl #2]
 8001136:	4770      	bx	lr
 8001138:	e000e100 	.word	0xe000e100

0800113c <HAL_SYSTICK_Config>:
           function <b>SysTick_Config</b> is not included. In this case, the file <b><i>device</i>.h</b>
           must contain a vendor-specific implementation of this function.
 */
__STATIC_INLINE uint32_t SysTick_Config(uint32_t ticks)
{
  if ((ticks - 1UL) > SysTick_LOAD_RELOAD_Msk)
 800113c:	3801      	subs	r0, #1
 800113e:	f1b0 7f80 	cmp.w	r0, #16777216	; 0x1000000
 8001142:	d20a      	bcs.n	800115a <HAL_SYSTICK_Config+0x1e>
    SCB->SHP[(((uint32_t)IRQn) & 0xFUL)-4UL] = (uint8_t)((priority << (8U - __NVIC_PRIO_BITS)) & (uint32_t)0xFFUL);
 8001144:	21f0      	movs	r1, #240	; 0xf0
  {
    return (1UL);                                                   /* Reload value impossible */
  }

  SysTick->LOAD  = (uint32_t)(ticks - 1UL);                         /* set reload register */
 8001146:	4b06      	ldr	r3, [pc, #24]	; (8001160 <HAL_SYSTICK_Config+0x24>)
    SCB->SHP[(((uint32_t)IRQn) & 0xFUL)-4UL] = (uint8_t)((priority << (8U - __NVIC_PRIO_BITS)) & (uint32_t)0xFFUL);
 8001148:	4a06      	ldr	r2, [pc, #24]	; (8001164 <HAL_SYSTICK_Config+0x28>)
  SysTick->LOAD  = (uint32_t)(ticks - 1UL);                         /* set reload register */
 800114a:	6058      	str	r0, [r3, #4]
    SCB->SHP[(((uint32_t)IRQn) & 0xFUL)-4UL] = (uint8_t)((priority << (8U - __NVIC_PRIO_BITS)) & (uint32_t)0xFFUL);
 800114c:	f882 1023 	strb.w	r1, [r2, #35]	; 0x23
  NVIC_SetPriority (SysTick_IRQn, (1UL << __NVIC_PRIO_BITS) - 1UL); /* set Priority for Systick Interrupt */
  SysTick->VAL   = 0UL;                                             /* Load the SysTick Counter Value */
 8001150:	2000      	movs	r0, #0
  SysTick->CTRL  = SysTick_CTRL_CLKSOURCE_Msk |
 8001152:	2207      	movs	r2, #7
  SysTick->VAL   = 0UL;                                             /* Load the SysTick Counter Value */
 8001154:	6098      	str	r0, [r3, #8]
  SysTick->CTRL  = SysTick_CTRL_CLKSOURCE_Msk |
 8001156:	601a      	str	r2, [r3, #0]
 8001158:	4770      	bx	lr
    return (1UL);                                                   /* Reload value impossible */
 800115a:	2001      	movs	r0, #1
  *                  - 1  Function failed.
  */
uint32_t HAL_SYSTICK_Config(uint32_t TicksNumb)
{
   return SysTick_Config(TicksNumb);
}
 800115c:	4770      	bx	lr
 800115e:	bf00      	nop
 8001160:	e000e010 	.word	0xe000e010
 8001164:	e000ed00 	.word	0xe000ed00

08001168 <HAL_GPIO_Init>:
  * @param  GPIO_Init: pointer to a GPIO_InitTypeDef structure that contains
  *         the configuration information for the specified GPIO peripheral.
  * @retval None
  */
void HAL_GPIO_Init(GPIO_TypeDef  *GPIOx, GPIO_InitTypeDef *GPIO_Init)
{
 8001168:	e92d 4ff7 	stmdb	sp!, {r0, r1, r2, r4, r5, r6, r7, r8, r9, sl, fp, lr}
  uint32_t position = 0x00u;
  uint32_t ioposition;
  uint32_t iocurrent;
  uint32_t temp;
  uint32_t config = 0x00u;
 800116c:	2400      	movs	r4, #0
  uint32_t position = 0x00u;
 800116e:	4626      	mov	r6, r4
 8001170:	4b66      	ldr	r3, [pc, #408]	; (800130c <HAL_GPIO_Init+0x1a4>)
    {
      /* Check the Alternate function parameters */
      assert_param(IS_GPIO_AF_INSTANCE(GPIOx));

      /* Based on the required mode, filling config variable with MODEy[1:0] and CNFy[3:2] corresponding bits */
      switch (GPIO_Init->Mode)
 8001172:	f8df e1a8 	ldr.w	lr, [pc, #424]	; 800131c <HAL_GPIO_Init+0x1b4>
 8001176:	f8df c1a8 	ldr.w	ip, [pc, #424]	; 8001320 <HAL_GPIO_Init+0x1b8>
  while (((GPIO_Init->Pin) >> position) != 0x00u)
 800117a:	680a      	ldr	r2, [r1, #0]
 800117c:	fa32 f506 	lsrs.w	r5, r2, r6
 8001180:	d102      	bne.n	8001188 <HAL_GPIO_Init+0x20>
      }
    }

	position++;
  }
}
 8001182:	b003      	add	sp, #12
 8001184:	e8bd 8ff0 	ldmia.w	sp!, {r4, r5, r6, r7, r8, r9, sl, fp, pc}
    ioposition = (0x01uL << position);
 8001188:	f04f 0801 	mov.w	r8, #1
 800118c:	fa08 f806 	lsl.w	r8, r8, r6
    iocurrent = (uint32_t)(GPIO_Init->Pin) & ioposition;
 8001190:	ea02 0208 	and.w	r2, r2, r8
    if (iocurrent == ioposition)
 8001194:	4590      	cmp	r8, r2
 8001196:	d17f      	bne.n	8001298 <HAL_GPIO_Init+0x130>
      switch (GPIO_Init->Mode)
 8001198:	684d      	ldr	r5, [r1, #4]
 800119a:	2d12      	cmp	r5, #18
 800119c:	f000 80aa 	beq.w	80012f4 <HAL_GPIO_Init+0x18c>
 80011a0:	f200 8083 	bhi.w	80012aa <HAL_GPIO_Init+0x142>
 80011a4:	2d02      	cmp	r5, #2
 80011a6:	f000 80a2 	beq.w	80012ee <HAL_GPIO_Init+0x186>
 80011aa:	d877      	bhi.n	800129c <HAL_GPIO_Init+0x134>
 80011ac:	2d00      	cmp	r5, #0
 80011ae:	f000 8089 	beq.w	80012c4 <HAL_GPIO_Init+0x15c>
 80011b2:	2d01      	cmp	r5, #1
 80011b4:	f000 8099 	beq.w	80012ea <HAL_GPIO_Init+0x182>
      MODIFY_REG((*configregister), ((GPIO_CRL_MODE0 | GPIO_CRL_CNF0) << registeroffset), (config << registeroffset));
 80011b8:	f04f 090f 	mov.w	r9, #15
      configregister = (iocurrent < GPIO_PIN_8) ? &GPIOx->CRL     : &GPIOx->CRH;
 80011bc:	2aff      	cmp	r2, #255	; 0xff
 80011be:	bf93      	iteet	ls
 80011c0:	4682      	movls	sl, r0
 80011c2:	f106 4580 	addhi.w	r5, r6, #1073741824	; 0x40000000
 80011c6:	3d08      	subhi	r5, #8
 80011c8:	f8d0 b000 	ldrls.w	fp, [r0]
 80011cc:	bf92      	itee	ls
 80011ce:	00b5      	lslls	r5, r6, #2
 80011d0:	f8d0 b004 	ldrhi.w	fp, [r0, #4]
 80011d4:	00ad      	lslhi	r5, r5, #2
      MODIFY_REG((*configregister), ((GPIO_CRL_MODE0 | GPIO_CRL_CNF0) << registeroffset), (config << registeroffset));
 80011d6:	fa09 f805 	lsl.w	r8, r9, r5
 80011da:	ea2b 0808 	bic.w	r8, fp, r8
 80011de:	fa04 f505 	lsl.w	r5, r4, r5
      configregister = (iocurrent < GPIO_PIN_8) ? &GPIOx->CRL     : &GPIOx->CRH;
 80011e2:	bf88      	it	hi
 80011e4:	f100 0a04 	addhi.w	sl, r0, #4
      MODIFY_REG((*configregister), ((GPIO_CRL_MODE0 | GPIO_CRL_CNF0) << registeroffset), (config << registeroffset));
 80011e8:	ea48 0505 	orr.w	r5, r8, r5
 80011ec:	f8ca 5000 	str.w	r5, [sl]
      if ((GPIO_Init->Mode & EXTI_MODE) == EXTI_MODE)
 80011f0:	f8d1 a004 	ldr.w	sl, [r1, #4]
 80011f4:	f01a 5f80 	tst.w	sl, #268435456	; 0x10000000
 80011f8:	d04e      	beq.n	8001298 <HAL_GPIO_Init+0x130>
        __HAL_RCC_AFIO_CLK_ENABLE();
 80011fa:	4d45      	ldr	r5, [pc, #276]	; (8001310 <HAL_GPIO_Init+0x1a8>)
 80011fc:	4f44      	ldr	r7, [pc, #272]	; (8001310 <HAL_GPIO_Init+0x1a8>)
 80011fe:	69ad      	ldr	r5, [r5, #24]
 8001200:	f026 0803 	bic.w	r8, r6, #3
 8001204:	f045 0501 	orr.w	r5, r5, #1
 8001208:	61bd      	str	r5, [r7, #24]
 800120a:	69bd      	ldr	r5, [r7, #24]
 800120c:	f108 4880 	add.w	r8, r8, #1073741824	; 0x40000000
 8001210:	f005 0501 	and.w	r5, r5, #1
 8001214:	9501      	str	r5, [sp, #4]
 8001216:	f508 3880 	add.w	r8, r8, #65536	; 0x10000
        CLEAR_BIT(temp, (0x0Fu) << (4u * (position & 0x03u)));
 800121a:	f006 0b03 	and.w	fp, r6, #3
        __HAL_RCC_AFIO_CLK_ENABLE();
 800121e:	9d01      	ldr	r5, [sp, #4]
        CLEAR_BIT(temp, (0x0Fu) << (4u * (position & 0x03u)));
 8001220:	ea4f 0b8b 	mov.w	fp, fp, lsl #2
        temp = AFIO->EXTICR[position >> 2u];
 8001224:	f8d8 5008 	ldr.w	r5, [r8, #8]
        CLEAR_BIT(temp, (0x0Fu) << (4u * (position & 0x03u)));
 8001228:	fa09 f90b 	lsl.w	r9, r9, fp
 800122c:	ea25 0909 	bic.w	r9, r5, r9
        SET_BIT(temp, (GPIO_GET_INDEX(GPIOx)) << (4u * (position & 0x03u)));
 8001230:	4d38      	ldr	r5, [pc, #224]	; (8001314 <HAL_GPIO_Init+0x1ac>)
 8001232:	42a8      	cmp	r0, r5
 8001234:	d063      	beq.n	80012fe <HAL_GPIO_Init+0x196>
 8001236:	f505 6580 	add.w	r5, r5, #1024	; 0x400
 800123a:	42a8      	cmp	r0, r5
 800123c:	d061      	beq.n	8001302 <HAL_GPIO_Init+0x19a>
 800123e:	f505 6580 	add.w	r5, r5, #1024	; 0x400
 8001242:	42a8      	cmp	r0, r5
 8001244:	d05f      	beq.n	8001306 <HAL_GPIO_Init+0x19e>
 8001246:	f505 6580 	add.w	r5, r5, #1024	; 0x400
 800124a:	42a8      	cmp	r0, r5
 800124c:	bf0c      	ite	eq
 800124e:	2503      	moveq	r5, #3
 8001250:	2504      	movne	r5, #4
 8001252:	fa05 f50b 	lsl.w	r5, r5, fp
 8001256:	ea45 0509 	orr.w	r5, r5, r9
        AFIO->EXTICR[position >> 2u] = temp;
 800125a:	f8c8 5008 	str.w	r5, [r8, #8]
          SET_BIT(EXTI->IMR, iocurrent);
 800125e:	681d      	ldr	r5, [r3, #0]
        if ((GPIO_Init->Mode & GPIO_MODE_IT) == GPIO_MODE_IT)
 8001260:	f41a 3f80 	tst.w	sl, #65536	; 0x10000
          SET_BIT(EXTI->IMR, iocurrent);
 8001264:	bf14      	ite	ne
 8001266:	4315      	orrne	r5, r2
          CLEAR_BIT(EXTI->IMR, iocurrent);
 8001268:	4395      	biceq	r5, r2
 800126a:	601d      	str	r5, [r3, #0]
          SET_BIT(EXTI->EMR, iocurrent);
 800126c:	685d      	ldr	r5, [r3, #4]
        if ((GPIO_Init->Mode & GPIO_MODE_EVT) == GPIO_MODE_EVT)
 800126e:	f41a 3f00 	tst.w	sl, #131072	; 0x20000
          SET_BIT(EXTI->EMR, iocurrent);
 8001272:	bf14      	ite	ne
 8001274:	4315      	orrne	r5, r2
          CLEAR_BIT(EXTI->EMR, iocurrent);
 8001276:	4395      	biceq	r5, r2
 8001278:	605d      	str	r5, [r3, #4]
          SET_BIT(EXTI->RTSR, iocurrent);
 800127a:	689d      	ldr	r5, [r3, #8]
        if ((GPIO_Init->Mode & RISING_EDGE) == RISING_EDGE)
 800127c:	f41a 1f80 	tst.w	sl, #1048576	; 0x100000
          SET_BIT(EXTI->RTSR, iocurrent);
 8001280:	bf14      	ite	ne
 8001282:	4315      	orrne	r5, r2
          CLEAR_BIT(EXTI->RTSR, iocurrent);
 8001284:	4395      	biceq	r5, r2
 8001286:	609d      	str	r5, [r3, #8]
          SET_BIT(EXTI->FTSR, iocurrent);
 8001288:	68dd      	ldr	r5, [r3, #12]
        if ((GPIO_Init->Mode & FALLING_EDGE) == FALLING_EDGE)
 800128a:	f41a 1f00 	tst.w	sl, #2097152	; 0x200000
          SET_BIT(EXTI->FTSR, iocurrent);
 800128e:	bf14      	ite	ne
 8001290:	432a      	orrne	r2, r5
          CLEAR_BIT(EXTI->FTSR, iocurrent);
 8001292:	ea25 0202 	biceq.w	r2, r5, r2
 8001296:	60da      	str	r2, [r3, #12]
	position++;
 8001298:	3601      	adds	r6, #1
 800129a:	e76e      	b.n	800117a <HAL_GPIO_Init+0x12>
      switch (GPIO_Init->Mode)
 800129c:	2d03      	cmp	r5, #3
 800129e:	d022      	beq.n	80012e6 <HAL_GPIO_Init+0x17e>
 80012a0:	2d11      	cmp	r5, #17
 80012a2:	d189      	bne.n	80011b8 <HAL_GPIO_Init+0x50>
          config = GPIO_Init->Speed + GPIO_CR_CNF_GP_OUTPUT_OD;
 80012a4:	68cc      	ldr	r4, [r1, #12]
 80012a6:	3404      	adds	r4, #4
          break;
 80012a8:	e786      	b.n	80011b8 <HAL_GPIO_Init+0x50>
      switch (GPIO_Init->Mode)
 80012aa:	4f1b      	ldr	r7, [pc, #108]	; (8001318 <HAL_GPIO_Init+0x1b0>)
 80012ac:	42bd      	cmp	r5, r7
 80012ae:	d009      	beq.n	80012c4 <HAL_GPIO_Init+0x15c>
 80012b0:	d812      	bhi.n	80012d8 <HAL_GPIO_Init+0x170>
 80012b2:	f8df 9070 	ldr.w	r9, [pc, #112]	; 8001324 <HAL_GPIO_Init+0x1bc>
 80012b6:	454d      	cmp	r5, r9
 80012b8:	d004      	beq.n	80012c4 <HAL_GPIO_Init+0x15c>
 80012ba:	f509 3980 	add.w	r9, r9, #65536	; 0x10000
 80012be:	454d      	cmp	r5, r9
 80012c0:	f47f af7a 	bne.w	80011b8 <HAL_GPIO_Init+0x50>
          if (GPIO_Init->Pull == GPIO_NOPULL)
 80012c4:	688c      	ldr	r4, [r1, #8]
 80012c6:	b1c4      	cbz	r4, 80012fa <HAL_GPIO_Init+0x192>
          else if (GPIO_Init->Pull == GPIO_PULLUP)
 80012c8:	2c01      	cmp	r4, #1
            GPIOx->BSRR = ioposition;
 80012ca:	bf0c      	ite	eq
 80012cc:	f8c0 8010 	streq.w	r8, [r0, #16]
            GPIOx->BRR = ioposition;
 80012d0:	f8c0 8014 	strne.w	r8, [r0, #20]
            config = GPIO_CR_MODE_INPUT + GPIO_CR_CNF_INPUT_PU_PD;
 80012d4:	2408      	movs	r4, #8
 80012d6:	e76f      	b.n	80011b8 <HAL_GPIO_Init+0x50>
      switch (GPIO_Init->Mode)
 80012d8:	4575      	cmp	r5, lr
 80012da:	d0f3      	beq.n	80012c4 <HAL_GPIO_Init+0x15c>
 80012dc:	4565      	cmp	r5, ip
 80012de:	d0f1      	beq.n	80012c4 <HAL_GPIO_Init+0x15c>
 80012e0:	f8df 9044 	ldr.w	r9, [pc, #68]	; 8001328 <HAL_GPIO_Init+0x1c0>
 80012e4:	e7eb      	b.n	80012be <HAL_GPIO_Init+0x156>
          config = GPIO_CR_MODE_INPUT + GPIO_CR_CNF_ANALOG;
 80012e6:	2400      	movs	r4, #0
 80012e8:	e766      	b.n	80011b8 <HAL_GPIO_Init+0x50>
          config = GPIO_Init->Speed + GPIO_CR_CNF_GP_OUTPUT_PP;
 80012ea:	68cc      	ldr	r4, [r1, #12]
          break;
 80012ec:	e764      	b.n	80011b8 <HAL_GPIO_Init+0x50>
          config = GPIO_Init->Speed + GPIO_CR_CNF_AF_OUTPUT_PP;
 80012ee:	68cc      	ldr	r4, [r1, #12]
 80012f0:	3408      	adds	r4, #8
          break;
 80012f2:	e761      	b.n	80011b8 <HAL_GPIO_Init+0x50>
          config = GPIO_Init->Speed + GPIO_CR_CNF_AF_OUTPUT_OD;
 80012f4:	68cc      	ldr	r4, [r1, #12]
 80012f6:	340c      	adds	r4, #12
          break;
 80012f8:	e75e      	b.n	80011b8 <HAL_GPIO_Init+0x50>
            config = GPIO_CR_MODE_INPUT + GPIO_CR_CNF_INPUT_FLOATING;
 80012fa:	2404      	movs	r4, #4
 80012fc:	e75c      	b.n	80011b8 <HAL_GPIO_Init+0x50>
        SET_BIT(temp, (GPIO_GET_INDEX(GPIOx)) << (4u * (position & 0x03u)));
 80012fe:	2500      	movs	r5, #0
 8001300:	e7a7      	b.n	8001252 <HAL_GPIO_Init+0xea>
 8001302:	2501      	movs	r5, #1
 8001304:	e7a5      	b.n	8001252 <HAL_GPIO_Init+0xea>
 8001306:	2502      	movs	r5, #2
 8001308:	e7a3      	b.n	8001252 <HAL_GPIO_Init+0xea>
 800130a:	bf00      	nop
 800130c:	40010400 	.word	0x40010400
 8001310:	40021000 	.word	0x40021000
 8001314:	40010800 	.word	0x40010800
 8001318:	10210000 	.word	0x10210000
 800131c:	10310000 	.word	0x10310000
 8001320:	10320000 	.word	0x10320000
 8001324:	10110000 	.word	0x10110000
 8001328:	10220000 	.word	0x10220000

0800132c <HAL_GPIO_ReadPin>:
  GPIO_PinState bitstatus;

  /* Check the parameters */
  assert_param(IS_GPIO_PIN(GPIO_Pin));

  if ((GPIOx->IDR & GPIO_Pin) != (uint32_t)GPIO_PIN_RESET)
 800132c:	6883      	ldr	r3, [r0, #8]
 800132e:	4219      	tst	r1, r3
  else
  {
    bitstatus = GPIO_PIN_RESET;
  }
  return bitstatus;
}
 8001330:	bf14      	ite	ne
 8001332:	2001      	movne	r0, #1
 8001334:	2000      	moveq	r0, #0
 8001336:	4770      	bx	lr

08001338 <HAL_GPIO_WritePin>:
{
  /* Check the parameters */
  assert_param(IS_GPIO_PIN(GPIO_Pin));
  assert_param(IS_GPIO_PIN_ACTION(PinState));

  if (PinState != GPIO_PIN_RESET)
 8001338:	b10a      	cbz	r2, 800133e <HAL_GPIO_WritePin+0x6>
  {
    GPIOx->BSRR = GPIO_Pin;
  }
  else
  {
    GPIOx->BSRR = (uint32_t)GPIO_Pin << 16u;
 800133a:	6101      	str	r1, [r0, #16]
 800133c:	4770      	bx	lr
 800133e:	0409      	lsls	r1, r1, #16
 8001340:	e7fb      	b.n	800133a <HAL_GPIO_WritePin+0x2>

08001342 <HAL_GPIO_TogglePin>:
void HAL_GPIO_TogglePin(GPIO_TypeDef *GPIOx, uint16_t GPIO_Pin)
{
  /* Check the parameters */
  assert_param(IS_GPIO_PIN(GPIO_Pin));

  if ((GPIOx->ODR & GPIO_Pin) != 0x00u)
 8001342:	68c3      	ldr	r3, [r0, #12]
 8001344:	420b      	tst	r3, r1
  {
    GPIOx->BRR = (uint32_t)GPIO_Pin;
 8001346:	bf14      	ite	ne
 8001348:	6141      	strne	r1, [r0, #20]
  }
  else
  {
    GPIOx->BSRR = (uint32_t)GPIO_Pin;
 800134a:	6101      	streq	r1, [r0, #16]
 800134c:	4770      	bx	lr

0800134e <HAL_GPIO_EXTI_Callback>:
  * @brief  EXTI line detection callbacks.
  * @param  GPIO_Pin: Specifies the pins connected EXTI line
  * @retval None
  */
__weak void HAL_GPIO_EXTI_Callback(uint16_t GPIO_Pin)
{
 800134e:	4770      	bx	lr

08001350 <HAL_GPIO_EXTI_IRQHandler>:
{
 8001350:	b508      	push	{r3, lr}
  if (__HAL_GPIO_EXTI_GET_IT(GPIO_Pin) != 0x00u)
 8001352:	4b04      	ldr	r3, [pc, #16]	; (8001364 <HAL_GPIO_EXTI_IRQHandler+0x14>)
 8001354:	6959      	ldr	r1, [r3, #20]
 8001356:	4201      	tst	r1, r0
 8001358:	d002      	beq.n	8001360 <HAL_GPIO_EXTI_IRQHandler+0x10>
    __HAL_GPIO_EXTI_CLEAR_IT(GPIO_Pin);
 800135a:	6158      	str	r0, [r3, #20]
    HAL_GPIO_EXTI_Callback(GPIO_Pin);
 800135c:	f7ff fff7 	bl	800134e <HAL_GPIO_EXTI_Callback>
 8001360:	bd08      	pop	{r3, pc}
 8001362:	bf00      	nop
 8001364:	40010400 	.word	0x40010400

08001368 <HAL_RCC_OscConfig>:
  *         supported by this macro. User should request a transition to HSE Off
  *         first and then HSE On or HSE Bypass.
  * @retval HAL status
  */
HAL_StatusTypeDef HAL_RCC_OscConfig(RCC_OscInitTypeDef  *RCC_OscInitStruct)
{
 8001368:	e92d 41f3 	stmdb	sp!, {r0, r1, r4, r5, r6, r7, r8, lr}
  uint32_t tickstart;
  uint32_t pll_config;

  /* Check Null pointer */
  if (RCC_OscInitStruct == NULL)
 800136c:	4605      	mov	r5, r0
 800136e:	b908      	cbnz	r0, 8001374 <HAL_RCC_OscConfig+0xc>
    else
    {
      /* Check if there is a request to disable the PLL used as System clock source */
      if ((RCC_OscInitStruct->PLL.PLLState) == RCC_PLL_OFF)
      {
        return HAL_ERROR;
 8001370:	2001      	movs	r0, #1
 8001372:	e03c      	b.n	80013ee <HAL_RCC_OscConfig+0x86>
  if (((RCC_OscInitStruct->OscillatorType) & RCC_OSCILLATORTYPE_HSE) == RCC_OSCILLATORTYPE_HSE)
 8001374:	6803      	ldr	r3, [r0, #0]
 8001376:	07db      	lsls	r3, r3, #31
 8001378:	d410      	bmi.n	800139c <HAL_RCC_OscConfig+0x34>
  if (((RCC_OscInitStruct->OscillatorType) & RCC_OSCILLATORTYPE_HSI) == RCC_OSCILLATORTYPE_HSI)
 800137a:	682b      	ldr	r3, [r5, #0]
 800137c:	079f      	lsls	r7, r3, #30
 800137e:	d45d      	bmi.n	800143c <HAL_RCC_OscConfig+0xd4>
  if (((RCC_OscInitStruct->OscillatorType) & RCC_OSCILLATORTYPE_LSI) == RCC_OSCILLATORTYPE_LSI)
 8001380:	682b      	ldr	r3, [r5, #0]
 8001382:	0719      	lsls	r1, r3, #28
 8001384:	f100 8094 	bmi.w	80014b0 <HAL_RCC_OscConfig+0x148>
  if (((RCC_OscInitStruct->OscillatorType) & RCC_OSCILLATORTYPE_LSE) == RCC_OSCILLATORTYPE_LSE)
 8001388:	682b      	ldr	r3, [r5, #0]
 800138a:	075a      	lsls	r2, r3, #29
 800138c:	f100 80be 	bmi.w	800150c <HAL_RCC_OscConfig+0x1a4>
  if ((RCC_OscInitStruct->PLL.PLLState) != RCC_PLL_NONE)
 8001390:	69e8      	ldr	r0, [r5, #28]
 8001392:	2800      	cmp	r0, #0
 8001394:	f040 812c 	bne.w	80015f0 <HAL_RCC_OscConfig+0x288>
        }
      }
    }
  }

  return HAL_OK;
 8001398:	2000      	movs	r0, #0
 800139a:	e028      	b.n	80013ee <HAL_RCC_OscConfig+0x86>
    if ((__HAL_RCC_GET_SYSCLK_SOURCE() == RCC_SYSCLKSOURCE_STATUS_HSE)
 800139c:	4c8f      	ldr	r4, [pc, #572]	; (80015dc <HAL_RCC_OscConfig+0x274>)
 800139e:	6863      	ldr	r3, [r4, #4]
 80013a0:	f003 030c 	and.w	r3, r3, #12
 80013a4:	2b04      	cmp	r3, #4
 80013a6:	d007      	beq.n	80013b8 <HAL_RCC_OscConfig+0x50>
        || ((__HAL_RCC_GET_SYSCLK_SOURCE() == RCC_SYSCLKSOURCE_STATUS_PLLCLK) && (__HAL_RCC_GET_PLL_OSCSOURCE() == RCC_PLLSOURCE_HSE)))
 80013a8:	6863      	ldr	r3, [r4, #4]
 80013aa:	f003 030c 	and.w	r3, r3, #12
 80013ae:	2b08      	cmp	r3, #8
 80013b0:	d109      	bne.n	80013c6 <HAL_RCC_OscConfig+0x5e>
 80013b2:	6863      	ldr	r3, [r4, #4]
 80013b4:	03de      	lsls	r6, r3, #15
 80013b6:	d506      	bpl.n	80013c6 <HAL_RCC_OscConfig+0x5e>
      if ((__HAL_RCC_GET_FLAG(RCC_FLAG_HSERDY) != RESET) && (RCC_OscInitStruct->HSEState == RCC_HSE_OFF))
 80013b8:	6823      	ldr	r3, [r4, #0]
 80013ba:	039c      	lsls	r4, r3, #14
 80013bc:	d5dd      	bpl.n	800137a <HAL_RCC_OscConfig+0x12>
 80013be:	686b      	ldr	r3, [r5, #4]
 80013c0:	2b00      	cmp	r3, #0
 80013c2:	d1da      	bne.n	800137a <HAL_RCC_OscConfig+0x12>
 80013c4:	e7d4      	b.n	8001370 <HAL_RCC_OscConfig+0x8>
      __HAL_RCC_HSE_CONFIG(RCC_OscInitStruct->HSEState);
 80013c6:	686b      	ldr	r3, [r5, #4]
 80013c8:	f5b3 3f80 	cmp.w	r3, #65536	; 0x10000
 80013cc:	d112      	bne.n	80013f4 <HAL_RCC_OscConfig+0x8c>
 80013ce:	6823      	ldr	r3, [r4, #0]
 80013d0:	f443 3380 	orr.w	r3, r3, #65536	; 0x10000
 80013d4:	6023      	str	r3, [r4, #0]
        tickstart = HAL_GetTick();
 80013d6:	f7ff fe45 	bl	8001064 <HAL_GetTick>
 80013da:	4606      	mov	r6, r0
        while (__HAL_RCC_GET_FLAG(RCC_FLAG_HSERDY) == RESET)
 80013dc:	6823      	ldr	r3, [r4, #0]
 80013de:	0398      	lsls	r0, r3, #14
 80013e0:	d4cb      	bmi.n	800137a <HAL_RCC_OscConfig+0x12>
          if ((HAL_GetTick() - tickstart) > HSE_TIMEOUT_VALUE)
 80013e2:	f7ff fe3f 	bl	8001064 <HAL_GetTick>
 80013e6:	1b80      	subs	r0, r0, r6
 80013e8:	2864      	cmp	r0, #100	; 0x64
 80013ea:	d9f7      	bls.n	80013dc <HAL_RCC_OscConfig+0x74>
            return HAL_TIMEOUT;
 80013ec:	2003      	movs	r0, #3
}
 80013ee:	b002      	add	sp, #8
 80013f0:	e8bd 81f0 	ldmia.w	sp!, {r4, r5, r6, r7, r8, pc}
      __HAL_RCC_HSE_CONFIG(RCC_OscInitStruct->HSEState);
 80013f4:	b99b      	cbnz	r3, 800141e <HAL_RCC_OscConfig+0xb6>
 80013f6:	6823      	ldr	r3, [r4, #0]
 80013f8:	f423 3380 	bic.w	r3, r3, #65536	; 0x10000
 80013fc:	6023      	str	r3, [r4, #0]
 80013fe:	6823      	ldr	r3, [r4, #0]
 8001400:	f423 2380 	bic.w	r3, r3, #262144	; 0x40000
 8001404:	6023      	str	r3, [r4, #0]
        tickstart = HAL_GetTick();
 8001406:	f7ff fe2d 	bl	8001064 <HAL_GetTick>
 800140a:	4606      	mov	r6, r0
        while (__HAL_RCC_GET_FLAG(RCC_FLAG_HSERDY) != RESET)
 800140c:	6823      	ldr	r3, [r4, #0]
 800140e:	0399      	lsls	r1, r3, #14
 8001410:	d5b3      	bpl.n	800137a <HAL_RCC_OscConfig+0x12>
          if ((HAL_GetTick() - tickstart) > HSE_TIMEOUT_VALUE)
 8001412:	f7ff fe27 	bl	8001064 <HAL_GetTick>
 8001416:	1b80      	subs	r0, r0, r6
 8001418:	2864      	cmp	r0, #100	; 0x64
 800141a:	d9f7      	bls.n	800140c <HAL_RCC_OscConfig+0xa4>
 800141c:	e7e6      	b.n	80013ec <HAL_RCC_OscConfig+0x84>
      __HAL_RCC_HSE_CONFIG(RCC_OscInitStruct->HSEState);
 800141e:	f5b3 2fa0 	cmp.w	r3, #327680	; 0x50000
 8001422:	6823      	ldr	r3, [r4, #0]
 8001424:	d103      	bne.n	800142e <HAL_RCC_OscConfig+0xc6>
 8001426:	f443 2380 	orr.w	r3, r3, #262144	; 0x40000
 800142a:	6023      	str	r3, [r4, #0]
 800142c:	e7cf      	b.n	80013ce <HAL_RCC_OscConfig+0x66>
 800142e:	f423 3380 	bic.w	r3, r3, #65536	; 0x10000
 8001432:	6023      	str	r3, [r4, #0]
 8001434:	6823      	ldr	r3, [r4, #0]
 8001436:	f423 2380 	bic.w	r3, r3, #262144	; 0x40000
 800143a:	e7cb      	b.n	80013d4 <HAL_RCC_OscConfig+0x6c>
    if ((__HAL_RCC_GET_SYSCLK_SOURCE() == RCC_SYSCLKSOURCE_STATUS_HSI)
 800143c:	4c67      	ldr	r4, [pc, #412]	; (80015dc <HAL_RCC_OscConfig+0x274>)
 800143e:	6863      	ldr	r3, [r4, #4]
 8001440:	f013 0f0c 	tst.w	r3, #12
 8001444:	d007      	beq.n	8001456 <HAL_RCC_OscConfig+0xee>
        || ((__HAL_RCC_GET_SYSCLK_SOURCE() == RCC_SYSCLKSOURCE_STATUS_PLLCLK) && (__HAL_RCC_GET_PLL_OSCSOURCE() == RCC_PLLSOURCE_HSI_DIV2)))
 8001446:	6863      	ldr	r3, [r4, #4]
 8001448:	f003 030c 	and.w	r3, r3, #12
 800144c:	2b08      	cmp	r3, #8
 800144e:	d110      	bne.n	8001472 <HAL_RCC_OscConfig+0x10a>
 8001450:	6863      	ldr	r3, [r4, #4]
 8001452:	03da      	lsls	r2, r3, #15
 8001454:	d40d      	bmi.n	8001472 <HAL_RCC_OscConfig+0x10a>
      if ((__HAL_RCC_GET_FLAG(RCC_FLAG_HSIRDY) != RESET) && (RCC_OscInitStruct->HSIState != RCC_HSI_ON))
 8001456:	6823      	ldr	r3, [r4, #0]
 8001458:	079b      	lsls	r3, r3, #30
 800145a:	d502      	bpl.n	8001462 <HAL_RCC_OscConfig+0xfa>
 800145c:	692b      	ldr	r3, [r5, #16]
 800145e:	2b01      	cmp	r3, #1
 8001460:	d186      	bne.n	8001370 <HAL_RCC_OscConfig+0x8>
        __HAL_RCC_HSI_CALIBRATIONVALUE_ADJUST(RCC_OscInitStruct->HSICalibrationValue);
 8001462:	6823      	ldr	r3, [r4, #0]
 8001464:	696a      	ldr	r2, [r5, #20]
 8001466:	f023 03f8 	bic.w	r3, r3, #248	; 0xf8
 800146a:	ea43 03c2 	orr.w	r3, r3, r2, lsl #3
 800146e:	6023      	str	r3, [r4, #0]
 8001470:	e786      	b.n	8001380 <HAL_RCC_OscConfig+0x18>
      if (RCC_OscInitStruct->HSIState != RCC_HSI_OFF)
 8001472:	692a      	ldr	r2, [r5, #16]
 8001474:	4b5a      	ldr	r3, [pc, #360]	; (80015e0 <HAL_RCC_OscConfig+0x278>)
 8001476:	b16a      	cbz	r2, 8001494 <HAL_RCC_OscConfig+0x12c>
        __HAL_RCC_HSI_ENABLE();
 8001478:	2201      	movs	r2, #1
 800147a:	601a      	str	r2, [r3, #0]
        tickstart = HAL_GetTick();
 800147c:	f7ff fdf2 	bl	8001064 <HAL_GetTick>
 8001480:	4606      	mov	r6, r0
        while (__HAL_RCC_GET_FLAG(RCC_FLAG_HSIRDY) == RESET)
 8001482:	6823      	ldr	r3, [r4, #0]
 8001484:	079f      	lsls	r7, r3, #30
 8001486:	d4ec      	bmi.n	8001462 <HAL_RCC_OscConfig+0xfa>
          if ((HAL_GetTick() - tickstart) > HSI_TIMEOUT_VALUE)
 8001488:	f7ff fdec 	bl	8001064 <HAL_GetTick>
 800148c:	1b80      	subs	r0, r0, r6
 800148e:	2802      	cmp	r0, #2
 8001490:	d9f7      	bls.n	8001482 <HAL_RCC_OscConfig+0x11a>
 8001492:	e7ab      	b.n	80013ec <HAL_RCC_OscConfig+0x84>
        __HAL_RCC_HSI_DISABLE();
 8001494:	601a      	str	r2, [r3, #0]
        tickstart = HAL_GetTick();
 8001496:	f7ff fde5 	bl	8001064 <HAL_GetTick>
 800149a:	4606      	mov	r6, r0
        while (__HAL_RCC_GET_FLAG(RCC_FLAG_HSIRDY) != RESET)
 800149c:	6823      	ldr	r3, [r4, #0]
 800149e:	0798      	lsls	r0, r3, #30
 80014a0:	f57f af6e 	bpl.w	8001380 <HAL_RCC_OscConfig+0x18>
          if ((HAL_GetTick() - tickstart) > HSI_TIMEOUT_VALUE)
 80014a4:	f7ff fdde 	bl	8001064 <HAL_GetTick>
 80014a8:	1b80      	subs	r0, r0, r6
 80014aa:	2802      	cmp	r0, #2
 80014ac:	d9f6      	bls.n	800149c <HAL_RCC_OscConfig+0x134>
 80014ae:	e79d      	b.n	80013ec <HAL_RCC_OscConfig+0x84>
    if (RCC_OscInitStruct->LSIState != RCC_LSI_OFF)
 80014b0:	69aa      	ldr	r2, [r5, #24]
 80014b2:	4c4a      	ldr	r4, [pc, #296]	; (80015dc <HAL_RCC_OscConfig+0x274>)
 80014b4:	4b4b      	ldr	r3, [pc, #300]	; (80015e4 <HAL_RCC_OscConfig+0x27c>)
 80014b6:	b1da      	cbz	r2, 80014f0 <HAL_RCC_OscConfig+0x188>
      __HAL_RCC_LSI_ENABLE();
 80014b8:	2201      	movs	r2, #1
 80014ba:	601a      	str	r2, [r3, #0]
      tickstart = HAL_GetTick();
 80014bc:	f7ff fdd2 	bl	8001064 <HAL_GetTick>
 80014c0:	4606      	mov	r6, r0
      while (__HAL_RCC_GET_FLAG(RCC_FLAG_LSIRDY) == RESET)
 80014c2:	6a63      	ldr	r3, [r4, #36]	; 0x24
 80014c4:	079b      	lsls	r3, r3, #30
 80014c6:	d50d      	bpl.n	80014e4 <HAL_RCC_OscConfig+0x17c>
  * @param  mdelay: specifies the delay time length, in milliseconds.
  * @retval None
  */
static void RCC_Delay(uint32_t mdelay)
{
  __IO uint32_t Delay = mdelay * (SystemCoreClock / 8U / 1000U);
 80014c8:	f44f 52fa 	mov.w	r2, #8000	; 0x1f40
 80014cc:	4b46      	ldr	r3, [pc, #280]	; (80015e8 <HAL_RCC_OscConfig+0x280>)
 80014ce:	681b      	ldr	r3, [r3, #0]
 80014d0:	fbb3 f3f2 	udiv	r3, r3, r2
 80014d4:	9301      	str	r3, [sp, #4]
  do
  {
    __NOP();
 80014d6:	bf00      	nop
  }
  while (Delay --);
 80014d8:	9b01      	ldr	r3, [sp, #4]
 80014da:	1e5a      	subs	r2, r3, #1
 80014dc:	9201      	str	r2, [sp, #4]
 80014de:	2b00      	cmp	r3, #0
 80014e0:	d1f9      	bne.n	80014d6 <HAL_RCC_OscConfig+0x16e>
 80014e2:	e751      	b.n	8001388 <HAL_RCC_OscConfig+0x20>
        if ((HAL_GetTick() - tickstart) > LSI_TIMEOUT_VALUE)
 80014e4:	f7ff fdbe 	bl	8001064 <HAL_GetTick>
 80014e8:	1b80      	subs	r0, r0, r6
 80014ea:	2802      	cmp	r0, #2
 80014ec:	d9e9      	bls.n	80014c2 <HAL_RCC_OscConfig+0x15a>
 80014ee:	e77d      	b.n	80013ec <HAL_RCC_OscConfig+0x84>
      __HAL_RCC_LSI_DISABLE();
 80014f0:	601a      	str	r2, [r3, #0]
      tickstart = HAL_GetTick();
 80014f2:	f7ff fdb7 	bl	8001064 <HAL_GetTick>
 80014f6:	4606      	mov	r6, r0
      while (__HAL_RCC_GET_FLAG(RCC_FLAG_LSIRDY) != RESET)
 80014f8:	6a63      	ldr	r3, [r4, #36]	; 0x24
 80014fa:	079f      	lsls	r7, r3, #30
 80014fc:	f57f af44 	bpl.w	8001388 <HAL_RCC_OscConfig+0x20>
        if ((HAL_GetTick() - tickstart) > LSI_TIMEOUT_VALUE)
 8001500:	f7ff fdb0 	bl	8001064 <HAL_GetTick>
 8001504:	1b80      	subs	r0, r0, r6
 8001506:	2802      	cmp	r0, #2
 8001508:	d9f6      	bls.n	80014f8 <HAL_RCC_OscConfig+0x190>
 800150a:	e76f      	b.n	80013ec <HAL_RCC_OscConfig+0x84>
    if (__HAL_RCC_PWR_IS_CLK_DISABLED())
 800150c:	4c33      	ldr	r4, [pc, #204]	; (80015dc <HAL_RCC_OscConfig+0x274>)
 800150e:	69e3      	ldr	r3, [r4, #28]
 8001510:	00d8      	lsls	r0, r3, #3
 8001512:	d424      	bmi.n	800155e <HAL_RCC_OscConfig+0x1f6>
      pwrclkchanged = SET;
 8001514:	2701      	movs	r7, #1
      __HAL_RCC_PWR_CLK_ENABLE();
 8001516:	69e3      	ldr	r3, [r4, #28]
 8001518:	f043 5380 	orr.w	r3, r3, #268435456	; 0x10000000
 800151c:	61e3      	str	r3, [r4, #28]
 800151e:	69e3      	ldr	r3, [r4, #28]
 8001520:	f003 5380 	and.w	r3, r3, #268435456	; 0x10000000
 8001524:	9300      	str	r3, [sp, #0]
 8001526:	9b00      	ldr	r3, [sp, #0]
    if (HAL_IS_BIT_CLR(PWR->CR, PWR_CR_DBP))
 8001528:	4e30      	ldr	r6, [pc, #192]	; (80015ec <HAL_RCC_OscConfig+0x284>)
 800152a:	6833      	ldr	r3, [r6, #0]
 800152c:	05d9      	lsls	r1, r3, #23
 800152e:	d518      	bpl.n	8001562 <HAL_RCC_OscConfig+0x1fa>
    __HAL_RCC_LSE_CONFIG(RCC_OscInitStruct->LSEState);
 8001530:	68eb      	ldr	r3, [r5, #12]
 8001532:	2b01      	cmp	r3, #1
 8001534:	d126      	bne.n	8001584 <HAL_RCC_OscConfig+0x21c>
 8001536:	6a23      	ldr	r3, [r4, #32]
 8001538:	f043 0301 	orr.w	r3, r3, #1
 800153c:	6223      	str	r3, [r4, #32]
      tickstart = HAL_GetTick();
 800153e:	f7ff fd91 	bl	8001064 <HAL_GetTick>
        if ((HAL_GetTick() - tickstart) > RCC_LSE_TIMEOUT_VALUE)
 8001542:	f241 3688 	movw	r6, #5000	; 0x1388
      tickstart = HAL_GetTick();
 8001546:	4680      	mov	r8, r0
      while (__HAL_RCC_GET_FLAG(RCC_FLAG_LSERDY) == RESET)
 8001548:	6a23      	ldr	r3, [r4, #32]
 800154a:	079b      	lsls	r3, r3, #30
 800154c:	d53f      	bpl.n	80015ce <HAL_RCC_OscConfig+0x266>
    if (pwrclkchanged == SET)
 800154e:	2f00      	cmp	r7, #0
 8001550:	f43f af1e 	beq.w	8001390 <HAL_RCC_OscConfig+0x28>
      __HAL_RCC_PWR_CLK_DISABLE();
 8001554:	69e3      	ldr	r3, [r4, #28]
 8001556:	f023 5380 	bic.w	r3, r3, #268435456	; 0x10000000
 800155a:	61e3      	str	r3, [r4, #28]
 800155c:	e718      	b.n	8001390 <HAL_RCC_OscConfig+0x28>
    FlagStatus       pwrclkchanged = RESET;
 800155e:	2700      	movs	r7, #0
 8001560:	e7e2      	b.n	8001528 <HAL_RCC_OscConfig+0x1c0>
      SET_BIT(PWR->CR, PWR_CR_DBP);
 8001562:	6833      	ldr	r3, [r6, #0]
 8001564:	f443 7380 	orr.w	r3, r3, #256	; 0x100
 8001568:	6033      	str	r3, [r6, #0]
      tickstart = HAL_GetTick();
 800156a:	f7ff fd7b 	bl	8001064 <HAL_GetTick>
 800156e:	4680      	mov	r8, r0
      while (HAL_IS_BIT_CLR(PWR->CR, PWR_CR_DBP))
 8001570:	6833      	ldr	r3, [r6, #0]
 8001572:	05da      	lsls	r2, r3, #23
 8001574:	d4dc      	bmi.n	8001530 <HAL_RCC_OscConfig+0x1c8>
        if ((HAL_GetTick() - tickstart) > RCC_DBP_TIMEOUT_VALUE)
 8001576:	f7ff fd75 	bl	8001064 <HAL_GetTick>
 800157a:	eba0 0008 	sub.w	r0, r0, r8
 800157e:	2864      	cmp	r0, #100	; 0x64
 8001580:	d9f6      	bls.n	8001570 <HAL_RCC_OscConfig+0x208>
 8001582:	e733      	b.n	80013ec <HAL_RCC_OscConfig+0x84>
    __HAL_RCC_LSE_CONFIG(RCC_OscInitStruct->LSEState);
 8001584:	b9ab      	cbnz	r3, 80015b2 <HAL_RCC_OscConfig+0x24a>
 8001586:	6a23      	ldr	r3, [r4, #32]
        if ((HAL_GetTick() - tickstart) > RCC_LSE_TIMEOUT_VALUE)
 8001588:	f241 3888 	movw	r8, #5000	; 0x1388
    __HAL_RCC_LSE_CONFIG(RCC_OscInitStruct->LSEState);
 800158c:	f023 0301 	bic.w	r3, r3, #1
 8001590:	6223      	str	r3, [r4, #32]
 8001592:	6a23      	ldr	r3, [r4, #32]
 8001594:	f023 0304 	bic.w	r3, r3, #4
 8001598:	6223      	str	r3, [r4, #32]
      tickstart = HAL_GetTick();
 800159a:	f7ff fd63 	bl	8001064 <HAL_GetTick>
 800159e:	4606      	mov	r6, r0
      while (__HAL_RCC_GET_FLAG(RCC_FLAG_LSERDY) != RESET)
 80015a0:	6a23      	ldr	r3, [r4, #32]
 80015a2:	0798      	lsls	r0, r3, #30
 80015a4:	d5d3      	bpl.n	800154e <HAL_RCC_OscConfig+0x1e6>
        if ((HAL_GetTick() - tickstart) > RCC_LSE_TIMEOUT_VALUE)
 80015a6:	f7ff fd5d 	bl	8001064 <HAL_GetTick>
 80015aa:	1b80      	subs	r0, r0, r6
 80015ac:	4540      	cmp	r0, r8
 80015ae:	d9f7      	bls.n	80015a0 <HAL_RCC_OscConfig+0x238>
 80015b0:	e71c      	b.n	80013ec <HAL_RCC_OscConfig+0x84>
    __HAL_RCC_LSE_CONFIG(RCC_OscInitStruct->LSEState);
 80015b2:	2b05      	cmp	r3, #5
 80015b4:	6a23      	ldr	r3, [r4, #32]
 80015b6:	d103      	bne.n	80015c0 <HAL_RCC_OscConfig+0x258>
 80015b8:	f043 0304 	orr.w	r3, r3, #4
 80015bc:	6223      	str	r3, [r4, #32]
 80015be:	e7ba      	b.n	8001536 <HAL_RCC_OscConfig+0x1ce>
 80015c0:	f023 0301 	bic.w	r3, r3, #1
 80015c4:	6223      	str	r3, [r4, #32]
 80015c6:	6a23      	ldr	r3, [r4, #32]
 80015c8:	f023 0304 	bic.w	r3, r3, #4
 80015cc:	e7b6      	b.n	800153c <HAL_RCC_OscConfig+0x1d4>
        if ((HAL_GetTick() - tickstart) > RCC_LSE_TIMEOUT_VALUE)
 80015ce:	f7ff fd49 	bl	8001064 <HAL_GetTick>
 80015d2:	eba0 0008 	sub.w	r0, r0, r8
 80015d6:	42b0      	cmp	r0, r6
 80015d8:	d9b6      	bls.n	8001548 <HAL_RCC_OscConfig+0x1e0>
 80015da:	e707      	b.n	80013ec <HAL_RCC_OscConfig+0x84>
 80015dc:	40021000 	.word	0x40021000
 80015e0:	42420000 	.word	0x42420000
 80015e4:	42420480 	.word	0x42420480
 80015e8:	2000001c 	.word	0x2000001c
 80015ec:	40007000 	.word	0x40007000
    if (__HAL_RCC_GET_SYSCLK_SOURCE() != RCC_SYSCLKSOURCE_STATUS_PLLCLK)
 80015f0:	4b2a      	ldr	r3, [pc, #168]	; (800169c <HAL_RCC_OscConfig+0x334>)
 80015f2:	685a      	ldr	r2, [r3, #4]
 80015f4:	461c      	mov	r4, r3
 80015f6:	f002 020c 	and.w	r2, r2, #12
 80015fa:	2a08      	cmp	r2, #8
 80015fc:	d03d      	beq.n	800167a <HAL_RCC_OscConfig+0x312>
 80015fe:	2300      	movs	r3, #0
 8001600:	4e27      	ldr	r6, [pc, #156]	; (80016a0 <HAL_RCC_OscConfig+0x338>)
      if ((RCC_OscInitStruct->PLL.PLLState) == RCC_PLL_ON)
 8001602:	2802      	cmp	r0, #2
        __HAL_RCC_PLL_DISABLE();
 8001604:	6033      	str	r3, [r6, #0]
      if ((RCC_OscInitStruct->PLL.PLLState) == RCC_PLL_ON)
 8001606:	d12b      	bne.n	8001660 <HAL_RCC_OscConfig+0x2f8>
        tickstart = HAL_GetTick();
 8001608:	f7ff fd2c 	bl	8001064 <HAL_GetTick>
 800160c:	4607      	mov	r7, r0
        while (__HAL_RCC_GET_FLAG(RCC_FLAG_PLLRDY)  != RESET)
 800160e:	6823      	ldr	r3, [r4, #0]
 8001610:	0199      	lsls	r1, r3, #6
 8001612:	d41f      	bmi.n	8001654 <HAL_RCC_OscConfig+0x2ec>
        if (RCC_OscInitStruct->PLL.PLLSource == RCC_PLLSOURCE_HSE)
 8001614:	6a2b      	ldr	r3, [r5, #32]
 8001616:	f5b3 3f80 	cmp.w	r3, #65536	; 0x10000
 800161a:	d105      	bne.n	8001628 <HAL_RCC_OscConfig+0x2c0>
          __HAL_RCC_HSE_PREDIV_CONFIG(RCC_OscInitStruct->HSEPredivValue);
 800161c:	6ae2      	ldr	r2, [r4, #44]	; 0x2c
 800161e:	68a9      	ldr	r1, [r5, #8]
 8001620:	f022 020f 	bic.w	r2, r2, #15
 8001624:	430a      	orrs	r2, r1
 8001626:	62e2      	str	r2, [r4, #44]	; 0x2c
        __HAL_RCC_PLL_CONFIG(RCC_OscInitStruct->PLL.PLLSource,
 8001628:	6a69      	ldr	r1, [r5, #36]	; 0x24
 800162a:	6862      	ldr	r2, [r4, #4]
 800162c:	430b      	orrs	r3, r1
 800162e:	f422 1274 	bic.w	r2, r2, #3997696	; 0x3d0000
 8001632:	4313      	orrs	r3, r2
 8001634:	6063      	str	r3, [r4, #4]
        __HAL_RCC_PLL_ENABLE();
 8001636:	2301      	movs	r3, #1
 8001638:	6033      	str	r3, [r6, #0]
        tickstart = HAL_GetTick();
 800163a:	f7ff fd13 	bl	8001064 <HAL_GetTick>
 800163e:	4605      	mov	r5, r0
        while (__HAL_RCC_GET_FLAG(RCC_FLAG_PLLRDY)  == RESET)
 8001640:	6823      	ldr	r3, [r4, #0]
 8001642:	019a      	lsls	r2, r3, #6
 8001644:	f53f aea8 	bmi.w	8001398 <HAL_RCC_OscConfig+0x30>
          if ((HAL_GetTick() - tickstart) > PLL_TIMEOUT_VALUE)
 8001648:	f7ff fd0c 	bl	8001064 <HAL_GetTick>
 800164c:	1b40      	subs	r0, r0, r5
 800164e:	2802      	cmp	r0, #2
 8001650:	d9f6      	bls.n	8001640 <HAL_RCC_OscConfig+0x2d8>
 8001652:	e6cb      	b.n	80013ec <HAL_RCC_OscConfig+0x84>
          if ((HAL_GetTick() - tickstart) > PLL_TIMEOUT_VALUE)
 8001654:	f7ff fd06 	bl	8001064 <HAL_GetTick>
 8001658:	1bc0      	subs	r0, r0, r7
 800165a:	2802      	cmp	r0, #2
 800165c:	d9d7      	bls.n	800160e <HAL_RCC_OscConfig+0x2a6>
 800165e:	e6c5      	b.n	80013ec <HAL_RCC_OscConfig+0x84>
        tickstart = HAL_GetTick();
 8001660:	f7ff fd00 	bl	8001064 <HAL_GetTick>
 8001664:	4605      	mov	r5, r0
        while (__HAL_RCC_GET_FLAG(RCC_FLAG_PLLRDY)  != RESET)
 8001666:	6823      	ldr	r3, [r4, #0]
 8001668:	019b      	lsls	r3, r3, #6
 800166a:	f57f ae95 	bpl.w	8001398 <HAL_RCC_OscConfig+0x30>
          if ((HAL_GetTick() - tickstart) > PLL_TIMEOUT_VALUE)
 800166e:	f7ff fcf9 	bl	8001064 <HAL_GetTick>
 8001672:	1b40      	subs	r0, r0, r5
 8001674:	2802      	cmp	r0, #2
 8001676:	d9f6      	bls.n	8001666 <HAL_RCC_OscConfig+0x2fe>
 8001678:	e6b8      	b.n	80013ec <HAL_RCC_OscConfig+0x84>
      if ((RCC_OscInitStruct->PLL.PLLState) == RCC_PLL_OFF)
 800167a:	2801      	cmp	r0, #1
 800167c:	f43f aeb7 	beq.w	80013ee <HAL_RCC_OscConfig+0x86>
        pll_config = RCC->CFGR;
 8001680:	6858      	ldr	r0, [r3, #4]
        if ((READ_BIT(pll_config, RCC_CFGR_PLLSRC) != RCC_OscInitStruct->PLL.PLLSource) ||
 8001682:	6a2b      	ldr	r3, [r5, #32]
 8001684:	f400 3280 	and.w	r2, r0, #65536	; 0x10000
 8001688:	429a      	cmp	r2, r3
 800168a:	f47f ae71 	bne.w	8001370 <HAL_RCC_OscConfig+0x8>
 800168e:	6a6b      	ldr	r3, [r5, #36]	; 0x24
            (READ_BIT(pll_config, RCC_CFGR_PLLMULL) != RCC_OscInitStruct->PLL.PLLMUL))
 8001690:	f400 1070 	and.w	r0, r0, #3932160	; 0x3c0000
    return HAL_ERROR;
 8001694:	1ac0      	subs	r0, r0, r3
 8001696:	bf18      	it	ne
 8001698:	2001      	movne	r0, #1
 800169a:	e6a8      	b.n	80013ee <HAL_RCC_OscConfig+0x86>
 800169c:	40021000 	.word	0x40021000
 80016a0:	42420060 	.word	0x42420060

080016a4 <HAL_RCC_GetSysClockFreq>:
{
 80016a4:	b530      	push	{r4, r5, lr}
 80016a6:	b089      	sub	sp, #36	; 0x24
  const uint8_t aPLLMULFactorTable[16] = {2, 3, 4, 5, 6, 7, 8, 9, 10, 11, 12, 13, 14, 15, 16, 16};
 80016a8:	466c      	mov	r4, sp
 80016aa:	4b1b      	ldr	r3, [pc, #108]	; (8001718 <HAL_RCC_GetSysClockFreq+0x74>)
 80016ac:	f103 0510 	add.w	r5, r3, #16
 80016b0:	4622      	mov	r2, r4
 80016b2:	6818      	ldr	r0, [r3, #0]
 80016b4:	6859      	ldr	r1, [r3, #4]
 80016b6:	3308      	adds	r3, #8
 80016b8:	c203      	stmia	r2!, {r0, r1}
 80016ba:	42ab      	cmp	r3, r5
 80016bc:	4614      	mov	r4, r2
 80016be:	d1f7      	bne.n	80016b0 <HAL_RCC_GetSysClockFreq+0xc>
  const uint8_t aPredivFactorTable[16] = {1, 2, 3, 4, 5, 6, 7, 8, 9, 10, 11, 12, 13, 14, 15, 16};
 80016c0:	4b16      	ldr	r3, [pc, #88]	; (800171c <HAL_RCC_GetSysClockFreq+0x78>)
 80016c2:	ac04      	add	r4, sp, #16
 80016c4:	f103 0510 	add.w	r5, r3, #16
 80016c8:	4622      	mov	r2, r4
 80016ca:	6818      	ldr	r0, [r3, #0]
 80016cc:	6859      	ldr	r1, [r3, #4]
 80016ce:	3308      	adds	r3, #8
 80016d0:	c203      	stmia	r2!, {r0, r1}
 80016d2:	42ab      	cmp	r3, r5
 80016d4:	4614      	mov	r4, r2
 80016d6:	d1f7      	bne.n	80016c8 <HAL_RCC_GetSysClockFreq+0x24>
  tmpreg = RCC->CFGR;
 80016d8:	4911      	ldr	r1, [pc, #68]	; (8001720 <HAL_RCC_GetSysClockFreq+0x7c>)
 80016da:	684b      	ldr	r3, [r1, #4]
  switch (tmpreg & RCC_CFGR_SWS)
 80016dc:	f003 020c 	and.w	r2, r3, #12
 80016e0:	2a08      	cmp	r2, #8
 80016e2:	d117      	bne.n	8001714 <HAL_RCC_GetSysClockFreq+0x70>
      pllmul = aPLLMULFactorTable[(uint32_t)(tmpreg & RCC_CFGR_PLLMULL) >> RCC_CFGR_PLLMULL_Pos];
 80016e4:	f3c3 4283 	ubfx	r2, r3, #18, #4
 80016e8:	a808      	add	r0, sp, #32
 80016ea:	4402      	add	r2, r0
      if ((tmpreg & RCC_CFGR_PLLSRC) != RCC_PLLSOURCE_HSI_DIV2)
 80016ec:	03db      	lsls	r3, r3, #15
      pllmul = aPLLMULFactorTable[(uint32_t)(tmpreg & RCC_CFGR_PLLMULL) >> RCC_CFGR_PLLMULL_Pos];
 80016ee:	f812 2c20 	ldrb.w	r2, [r2, #-32]
      if ((tmpreg & RCC_CFGR_PLLSRC) != RCC_PLLSOURCE_HSI_DIV2)
 80016f2:	d50c      	bpl.n	800170e <HAL_RCC_GetSysClockFreq+0x6a>
        prediv = aPredivFactorTable[(uint32_t)(RCC->CFGR2 & RCC_CFGR2_PREDIV1) >> RCC_CFGR2_PREDIV1_Pos];
 80016f4:	6acb      	ldr	r3, [r1, #44]	; 0x2c
        pllclk = (uint32_t)((HSE_VALUE  * pllmul) / prediv);
 80016f6:	480b      	ldr	r0, [pc, #44]	; (8001724 <HAL_RCC_GetSysClockFreq+0x80>)
        prediv = aPredivFactorTable[(uint32_t)(RCC->CFGR2 & RCC_CFGR2_PREDIV1) >> RCC_CFGR2_PREDIV1_Pos];
 80016f8:	f003 030f 	and.w	r3, r3, #15
        pllclk = (uint32_t)((HSE_VALUE  * pllmul) / prediv);
 80016fc:	4350      	muls	r0, r2
        prediv = aPredivFactorTable[(uint32_t)(RCC->CFGR2 & RCC_CFGR2_PREDIV1) >> RCC_CFGR2_PREDIV1_Pos];
 80016fe:	aa08      	add	r2, sp, #32
 8001700:	4413      	add	r3, r2
 8001702:	f813 3c10 	ldrb.w	r3, [r3, #-16]
        pllclk = (uint32_t)((HSE_VALUE  * pllmul) / prediv);
 8001706:	fbb0 f0f3 	udiv	r0, r0, r3
}
 800170a:	b009      	add	sp, #36	; 0x24
 800170c:	bd30      	pop	{r4, r5, pc}
        pllclk = (uint32_t)((HSI_VALUE >> 1) * pllmul);
 800170e:	4806      	ldr	r0, [pc, #24]	; (8001728 <HAL_RCC_GetSysClockFreq+0x84>)
 8001710:	4350      	muls	r0, r2
 8001712:	e7fa      	b.n	800170a <HAL_RCC_GetSysClockFreq+0x66>
      sysclockfreq = HSE_VALUE;
 8001714:	4803      	ldr	r0, [pc, #12]	; (8001724 <HAL_RCC_GetSysClockFreq+0x80>)
  return sysclockfreq;
 8001716:	e7f8      	b.n	800170a <HAL_RCC_GetSysClockFreq+0x66>
 8001718:	080033ac 	.word	0x080033ac
 800171c:	080033bc 	.word	0x080033bc
 8001720:	40021000 	.word	0x40021000
 8001724:	007a1200 	.word	0x007a1200
 8001728:	003d0900 	.word	0x003d0900

0800172c <HAL_RCC_ClockConfig>:
{
 800172c:	b5f8      	push	{r3, r4, r5, r6, r7, lr}
  if (RCC_ClkInitStruct == NULL)
 800172e:	4605      	mov	r5, r0
 8001730:	b908      	cbnz	r0, 8001736 <HAL_RCC_ClockConfig+0xa>
    return HAL_ERROR;
 8001732:	2001      	movs	r0, #1
 8001734:	bdf8      	pop	{r3, r4, r5, r6, r7, pc}
if (((RCC_ClkInitStruct->ClockType) & RCC_CLOCKTYPE_HCLK) == RCC_CLOCKTYPE_HCLK)
 8001736:	6802      	ldr	r2, [r0, #0]
 8001738:	4c30      	ldr	r4, [pc, #192]	; (80017fc <HAL_RCC_ClockConfig+0xd0>)
 800173a:	f012 0f02 	tst.w	r2, #2
 800173e:	d011      	beq.n	8001764 <HAL_RCC_ClockConfig+0x38>
    if (((RCC_ClkInitStruct->ClockType) & RCC_CLOCKTYPE_PCLK1) == RCC_CLOCKTYPE_PCLK1)
 8001740:	0757      	lsls	r7, r2, #29
      MODIFY_REG(RCC->CFGR, RCC_CFGR_PPRE1, RCC_HCLK_DIV16);
 8001742:	bf42      	ittt	mi
 8001744:	6863      	ldrmi	r3, [r4, #4]
 8001746:	f443 63e0 	orrmi.w	r3, r3, #1792	; 0x700
 800174a:	6063      	strmi	r3, [r4, #4]
    if (((RCC_ClkInitStruct->ClockType) & RCC_CLOCKTYPE_PCLK2) == RCC_CLOCKTYPE_PCLK2)
 800174c:	0716      	lsls	r6, r2, #28
      MODIFY_REG(RCC->CFGR, RCC_CFGR_PPRE2, (RCC_HCLK_DIV16 << 3));
 800174e:	bf42      	ittt	mi
 8001750:	6863      	ldrmi	r3, [r4, #4]
 8001752:	f443 5360 	orrmi.w	r3, r3, #14336	; 0x3800
 8001756:	6063      	strmi	r3, [r4, #4]
    MODIFY_REG(RCC->CFGR, RCC_CFGR_HPRE, RCC_ClkInitStruct->AHBCLKDivider);
 8001758:	6863      	ldr	r3, [r4, #4]
 800175a:	6881      	ldr	r1, [r0, #8]
 800175c:	f023 03f0 	bic.w	r3, r3, #240	; 0xf0
 8001760:	430b      	orrs	r3, r1
 8001762:	6063      	str	r3, [r4, #4]
  if (((RCC_ClkInitStruct->ClockType) & RCC_CLOCKTYPE_SYSCLK) == RCC_CLOCKTYPE_SYSCLK)
 8001764:	07d0      	lsls	r0, r2, #31
 8001766:	d41b      	bmi.n	80017a0 <HAL_RCC_ClockConfig+0x74>
if (((RCC_ClkInitStruct->ClockType) & RCC_CLOCKTYPE_PCLK1) == RCC_CLOCKTYPE_PCLK1)
 8001768:	682a      	ldr	r2, [r5, #0]
 800176a:	0751      	lsls	r1, r2, #29
 800176c:	d43f      	bmi.n	80017ee <HAL_RCC_ClockConfig+0xc2>
  if (((RCC_ClkInitStruct->ClockType) & RCC_CLOCKTYPE_PCLK2) == RCC_CLOCKTYPE_PCLK2)
 800176e:	0713      	lsls	r3, r2, #28
 8001770:	d506      	bpl.n	8001780 <HAL_RCC_ClockConfig+0x54>
    MODIFY_REG(RCC->CFGR, RCC_CFGR_PPRE2, ((RCC_ClkInitStruct->APB2CLKDivider) << 3));
 8001772:	6863      	ldr	r3, [r4, #4]
 8001774:	692a      	ldr	r2, [r5, #16]
 8001776:	f423 5360 	bic.w	r3, r3, #14336	; 0x3800
 800177a:	ea43 03c2 	orr.w	r3, r3, r2, lsl #3
 800177e:	6063      	str	r3, [r4, #4]
  SystemCoreClock = HAL_RCC_GetSysClockFreq() >> AHBPrescTable[(RCC->CFGR & RCC_CFGR_HPRE) >> RCC_CFGR_HPRE_Pos];
 8001780:	f7ff ff90 	bl	80016a4 <HAL_RCC_GetSysClockFreq>
 8001784:	6863      	ldr	r3, [r4, #4]
 8001786:	4a1e      	ldr	r2, [pc, #120]	; (8001800 <HAL_RCC_ClockConfig+0xd4>)
 8001788:	f3c3 1303 	ubfx	r3, r3, #4, #4
 800178c:	5cd3      	ldrb	r3, [r2, r3]
 800178e:	40d8      	lsrs	r0, r3
 8001790:	4b1c      	ldr	r3, [pc, #112]	; (8001804 <HAL_RCC_ClockConfig+0xd8>)
 8001792:	6018      	str	r0, [r3, #0]
  HAL_InitTick(uwTickPrio);
 8001794:	4b1c      	ldr	r3, [pc, #112]	; (8001808 <HAL_RCC_ClockConfig+0xdc>)
 8001796:	6818      	ldr	r0, [r3, #0]
 8001798:	f7ff fc28 	bl	8000fec <HAL_InitTick>
  return HAL_OK;
 800179c:	2000      	movs	r0, #0
 800179e:	bdf8      	pop	{r3, r4, r5, r6, r7, pc}
    if (RCC_ClkInitStruct->SYSCLKSource == RCC_SYSCLKSOURCE_HSE)
 80017a0:	686a      	ldr	r2, [r5, #4]
      if (__HAL_RCC_GET_FLAG(RCC_FLAG_HSERDY) == RESET)
 80017a2:	6823      	ldr	r3, [r4, #0]
    if (RCC_ClkInitStruct->SYSCLKSource == RCC_SYSCLKSOURCE_HSE)
 80017a4:	2a01      	cmp	r2, #1
 80017a6:	d11a      	bne.n	80017de <HAL_RCC_ClockConfig+0xb2>
      if (__HAL_RCC_GET_FLAG(RCC_FLAG_HSERDY) == RESET)
 80017a8:	f413 3f00 	tst.w	r3, #131072	; 0x20000
      if (__HAL_RCC_GET_FLAG(RCC_FLAG_HSIRDY) == RESET)
 80017ac:	d0c1      	beq.n	8001732 <HAL_RCC_ClockConfig+0x6>
    __HAL_RCC_SYSCLK_CONFIG(RCC_ClkInitStruct->SYSCLKSource);
 80017ae:	6863      	ldr	r3, [r4, #4]
      if ((HAL_GetTick() - tickstart) > CLOCKSWITCH_TIMEOUT_VALUE)
 80017b0:	f241 3788 	movw	r7, #5000	; 0x1388
    __HAL_RCC_SYSCLK_CONFIG(RCC_ClkInitStruct->SYSCLKSource);
 80017b4:	f023 0303 	bic.w	r3, r3, #3
 80017b8:	4313      	orrs	r3, r2
 80017ba:	6063      	str	r3, [r4, #4]
    tickstart = HAL_GetTick();
 80017bc:	f7ff fc52 	bl	8001064 <HAL_GetTick>
 80017c0:	4606      	mov	r6, r0
    while (__HAL_RCC_GET_SYSCLK_SOURCE() != (RCC_ClkInitStruct->SYSCLKSource << RCC_CFGR_SWS_Pos))
 80017c2:	6863      	ldr	r3, [r4, #4]
 80017c4:	686a      	ldr	r2, [r5, #4]
 80017c6:	f003 030c 	and.w	r3, r3, #12
 80017ca:	ebb3 0f82 	cmp.w	r3, r2, lsl #2
 80017ce:	d0cb      	beq.n	8001768 <HAL_RCC_ClockConfig+0x3c>
      if ((HAL_GetTick() - tickstart) > CLOCKSWITCH_TIMEOUT_VALUE)
 80017d0:	f7ff fc48 	bl	8001064 <HAL_GetTick>
 80017d4:	1b80      	subs	r0, r0, r6
 80017d6:	42b8      	cmp	r0, r7
 80017d8:	d9f3      	bls.n	80017c2 <HAL_RCC_ClockConfig+0x96>
        return HAL_TIMEOUT;
 80017da:	2003      	movs	r0, #3
}
 80017dc:	bdf8      	pop	{r3, r4, r5, r6, r7, pc}
    else if (RCC_ClkInitStruct->SYSCLKSource == RCC_SYSCLKSOURCE_PLLCLK)
 80017de:	2a02      	cmp	r2, #2
 80017e0:	d102      	bne.n	80017e8 <HAL_RCC_ClockConfig+0xbc>
      if (__HAL_RCC_GET_FLAG(RCC_FLAG_PLLRDY) == RESET)
 80017e2:	f013 7f00 	tst.w	r3, #33554432	; 0x2000000
 80017e6:	e7e1      	b.n	80017ac <HAL_RCC_ClockConfig+0x80>
      if (__HAL_RCC_GET_FLAG(RCC_FLAG_HSIRDY) == RESET)
 80017e8:	f013 0f02 	tst.w	r3, #2
 80017ec:	e7de      	b.n	80017ac <HAL_RCC_ClockConfig+0x80>
    MODIFY_REG(RCC->CFGR, RCC_CFGR_PPRE1, RCC_ClkInitStruct->APB1CLKDivider);
 80017ee:	6863      	ldr	r3, [r4, #4]
 80017f0:	68e9      	ldr	r1, [r5, #12]
 80017f2:	f423 63e0 	bic.w	r3, r3, #1792	; 0x700
 80017f6:	430b      	orrs	r3, r1
 80017f8:	6063      	str	r3, [r4, #4]
 80017fa:	e7b8      	b.n	800176e <HAL_RCC_ClockConfig+0x42>
 80017fc:	40021000 	.word	0x40021000
 8001800:	08003415 	.word	0x08003415
 8001804:	2000001c 	.word	0x2000001c
 8001808:	20000004 	.word	0x20000004

0800180c <TIM_OC1_SetConfig>:
  uint32_t tmpccmrx;
  uint32_t tmpccer;
  uint32_t tmpcr2;

  /* Disable the Channel 1: Reset the CC1E Bit */
  TIMx->CCER &= ~TIM_CCER_CC1E;
 800180c:	6a03      	ldr	r3, [r0, #32]
{
 800180e:	b570      	push	{r4, r5, r6, lr}
  TIMx->CCER &= ~TIM_CCER_CC1E;
 8001810:	f023 0301 	bic.w	r3, r3, #1
 8001814:	6203      	str	r3, [r0, #32]

  /* Get the TIMx CCER register value */
  tmpccer = TIMx->CCER;
 8001816:	6a03      	ldr	r3, [r0, #32]
  /* Get the TIMx CR2 register value */
  tmpcr2 =  TIMx->CR2;
 8001818:	6842      	ldr	r2, [r0, #4]

  /* Get the TIMx CCMR1 register value */
  tmpccmrx = TIMx->CCMR1;
 800181a:	6984      	ldr	r4, [r0, #24]

  /* Reset the Output Compare Mode Bits */
  tmpccmrx &= ~TIM_CCMR1_OC1M;
  tmpccmrx &= ~TIM_CCMR1_CC1S;
  /* Select the Output Compare Mode */
  tmpccmrx |= OC_Config->OCMode;
 800181c:	680d      	ldr	r5, [r1, #0]
  tmpccmrx &= ~TIM_CCMR1_CC1S;
 800181e:	f024 0473 	bic.w	r4, r4, #115	; 0x73
  tmpccmrx |= OC_Config->OCMode;
 8001822:	432c      	orrs	r4, r5

  /* Reset the Output Polarity level */
  tmpccer &= ~TIM_CCER_CC1P;
  /* Set the Output Compare Polarity */
  tmpccer |= OC_Config->OCPolarity;
 8001824:	688d      	ldr	r5, [r1, #8]
  tmpccer &= ~TIM_CCER_CC1P;
 8001826:	f023 0302 	bic.w	r3, r3, #2
  tmpccer |= OC_Config->OCPolarity;
 800182a:	432b      	orrs	r3, r5

  if (IS_TIM_CCXN_INSTANCE(TIMx, TIM_CHANNEL_1))
 800182c:	4d17      	ldr	r5, [pc, #92]	; (800188c <TIM_OC1_SetConfig+0x80>)
 800182e:	42a8      	cmp	r0, r5
 8001830:	d00b      	beq.n	800184a <TIM_OC1_SetConfig+0x3e>
 8001832:	f505 55a0 	add.w	r5, r5, #5120	; 0x1400
 8001836:	42a8      	cmp	r0, r5
 8001838:	d007      	beq.n	800184a <TIM_OC1_SetConfig+0x3e>
 800183a:	f505 6580 	add.w	r5, r5, #1024	; 0x400
 800183e:	42a8      	cmp	r0, r5
 8001840:	d003      	beq.n	800184a <TIM_OC1_SetConfig+0x3e>
 8001842:	f505 6580 	add.w	r5, r5, #1024	; 0x400
 8001846:	42a8      	cmp	r0, r5
 8001848:	d11a      	bne.n	8001880 <TIM_OC1_SetConfig+0x74>
    assert_param(IS_TIM_OCN_POLARITY(OC_Config->OCNPolarity));

    /* Reset the Output N Polarity level */
    tmpccer &= ~TIM_CCER_CC1NP;
    /* Set the Output N Polarity */
    tmpccer |= OC_Config->OCNPolarity;
 800184a:	68cd      	ldr	r5, [r1, #12]
    tmpccer &= ~TIM_CCER_CC1NP;
 800184c:	f023 0308 	bic.w	r3, r3, #8
    tmpccer |= OC_Config->OCNPolarity;
 8001850:	432b      	orrs	r3, r5
    /* Reset the Output N State */
    tmpccer &= ~TIM_CCER_CC1NE;
  }

  if (IS_TIM_BREAK_INSTANCE(TIMx))
 8001852:	4d0e      	ldr	r5, [pc, #56]	; (800188c <TIM_OC1_SetConfig+0x80>)
    tmpccer &= ~TIM_CCER_CC1NE;
 8001854:	f023 0304 	bic.w	r3, r3, #4
  if (IS_TIM_BREAK_INSTANCE(TIMx))
 8001858:	42a8      	cmp	r0, r5
 800185a:	d00b      	beq.n	8001874 <TIM_OC1_SetConfig+0x68>
 800185c:	f505 55a0 	add.w	r5, r5, #5120	; 0x1400
 8001860:	42a8      	cmp	r0, r5
 8001862:	d007      	beq.n	8001874 <TIM_OC1_SetConfig+0x68>
 8001864:	f505 6580 	add.w	r5, r5, #1024	; 0x400
 8001868:	42a8      	cmp	r0, r5
 800186a:	d003      	beq.n	8001874 <TIM_OC1_SetConfig+0x68>
 800186c:	f505 6580 	add.w	r5, r5, #1024	; 0x400
 8001870:	42a8      	cmp	r0, r5
 8001872:	d105      	bne.n	8001880 <TIM_OC1_SetConfig+0x74>
    assert_param(IS_TIM_OCNIDLE_STATE(OC_Config->OCNIdleState));
    assert_param(IS_TIM_OCIDLE_STATE(OC_Config->OCIdleState));

    /* Reset the Output Compare and Output Compare N IDLE State */
    tmpcr2 &= ~TIM_CR2_OIS1;
    tmpcr2 &= ~TIM_CR2_OIS1N;
 8001874:	f422 7540 	bic.w	r5, r2, #768	; 0x300
    /* Set the Output Idle state */
    tmpcr2 |= OC_Config->OCIdleState;
    /* Set the Output N Idle state */
    tmpcr2 |= OC_Config->OCNIdleState;
 8001878:	698e      	ldr	r6, [r1, #24]
 800187a:	694a      	ldr	r2, [r1, #20]
 800187c:	4332      	orrs	r2, r6
 800187e:	432a      	orrs	r2, r5
  }

  /* Write to TIMx CR2 */
  TIMx->CR2 = tmpcr2;
 8001880:	6042      	str	r2, [r0, #4]

  /* Write to TIMx CCMR1 */
  TIMx->CCMR1 = tmpccmrx;

  /* Set the Capture Compare Register value */
  TIMx->CCR1 = OC_Config->Pulse;
 8001882:	684a      	ldr	r2, [r1, #4]
  TIMx->CCMR1 = tmpccmrx;
 8001884:	6184      	str	r4, [r0, #24]
  TIMx->CCR1 = OC_Config->Pulse;
 8001886:	6342      	str	r2, [r0, #52]	; 0x34

  /* Write to TIMx CCER */
  TIMx->CCER = tmpccer;
 8001888:	6203      	str	r3, [r0, #32]
 800188a:	bd70      	pop	{r4, r5, r6, pc}
 800188c:	40012c00 	.word	0x40012c00

08001890 <TIM_OC3_SetConfig>:
  uint32_t tmpccmrx;
  uint32_t tmpccer;
  uint32_t tmpcr2;

  /* Disable the Channel 3: Reset the CC2E Bit */
  TIMx->CCER &= ~TIM_CCER_CC3E;
 8001890:	6a03      	ldr	r3, [r0, #32]
{
 8001892:	b570      	push	{r4, r5, r6, lr}
  TIMx->CCER &= ~TIM_CCER_CC3E;
 8001894:	f423 7380 	bic.w	r3, r3, #256	; 0x100
 8001898:	6203      	str	r3, [r0, #32]

  /* Get the TIMx CCER register value */
  tmpccer = TIMx->CCER;
 800189a:	6a03      	ldr	r3, [r0, #32]
  /* Get the TIMx CR2 register value */
  tmpcr2 =  TIMx->CR2;
 800189c:	6842      	ldr	r2, [r0, #4]

  /* Get the TIMx CCMR2 register value */
  tmpccmrx = TIMx->CCMR2;
 800189e:	69c4      	ldr	r4, [r0, #28]

  /* Reset the Output Compare mode and Capture/Compare selection Bits */
  tmpccmrx &= ~TIM_CCMR2_OC3M;
  tmpccmrx &= ~TIM_CCMR2_CC3S;
  /* Select the Output Compare Mode */
  tmpccmrx |= OC_Config->OCMode;
 80018a0:	680e      	ldr	r6, [r1, #0]
  tmpccmrx &= ~TIM_CCMR2_CC3S;
 80018a2:	f024 0473 	bic.w	r4, r4, #115	; 0x73
  tmpccmrx |= OC_Config->OCMode;
 80018a6:	4326      	orrs	r6, r4

  /* Reset the Output Polarity level */
  tmpccer &= ~TIM_CCER_CC3P;
  /* Set the Output Compare Polarity */
  tmpccer |= (OC_Config->OCPolarity << 8U);
 80018a8:	688c      	ldr	r4, [r1, #8]
  tmpccer &= ~TIM_CCER_CC3P;
 80018aa:	f423 7300 	bic.w	r3, r3, #512	; 0x200
  tmpccer |= (OC_Config->OCPolarity << 8U);
 80018ae:	ea43 2304 	orr.w	r3, r3, r4, lsl #8

  if (IS_TIM_CCXN_INSTANCE(TIMx, TIM_CHANNEL_3))
 80018b2:	4c11      	ldr	r4, [pc, #68]	; (80018f8 <TIM_OC3_SetConfig+0x68>)
 80018b4:	42a0      	cmp	r0, r4
 80018b6:	d10e      	bne.n	80018d6 <TIM_OC3_SetConfig+0x46>
    assert_param(IS_TIM_OCN_POLARITY(OC_Config->OCNPolarity));

    /* Reset the Output N Polarity level */
    tmpccer &= ~TIM_CCER_CC3NP;
    /* Set the Output N Polarity */
    tmpccer |= (OC_Config->OCNPolarity << 8U);
 80018b8:	68cc      	ldr	r4, [r1, #12]
    tmpccer &= ~TIM_CCER_CC3NP;
 80018ba:	f423 6300 	bic.w	r3, r3, #2048	; 0x800
    tmpccer |= (OC_Config->OCNPolarity << 8U);
 80018be:	ea43 2304 	orr.w	r3, r3, r4, lsl #8
    /* Reset the Output N State */
    tmpccer &= ~TIM_CCER_CC3NE;
 80018c2:	f423 6380 	bic.w	r3, r3, #1024	; 0x400

    /* Reset the Output Compare and Output Compare N IDLE State */
    tmpcr2 &= ~TIM_CR2_OIS3;
    tmpcr2 &= ~TIM_CR2_OIS3N;
    /* Set the Output Idle state */
    tmpcr2 |= (OC_Config->OCIdleState << 4U);
 80018c6:	694c      	ldr	r4, [r1, #20]
    /* Set the Output N Idle state */
    tmpcr2 |= (OC_Config->OCNIdleState << 4U);
 80018c8:	698d      	ldr	r5, [r1, #24]
    tmpcr2 &= ~TIM_CR2_OIS3N;
 80018ca:	f422 5240 	bic.w	r2, r2, #12288	; 0x3000
    tmpcr2 |= (OC_Config->OCNIdleState << 4U);
 80018ce:	432c      	orrs	r4, r5
 80018d0:	ea42 1204 	orr.w	r2, r2, r4, lsl #4
 80018d4:	e009      	b.n	80018ea <TIM_OC3_SetConfig+0x5a>
  if (IS_TIM_BREAK_INSTANCE(TIMx))
 80018d6:	4d09      	ldr	r5, [pc, #36]	; (80018fc <TIM_OC3_SetConfig+0x6c>)
 80018d8:	42a8      	cmp	r0, r5
 80018da:	d0f4      	beq.n	80018c6 <TIM_OC3_SetConfig+0x36>
 80018dc:	4c08      	ldr	r4, [pc, #32]	; (8001900 <TIM_OC3_SetConfig+0x70>)
 80018de:	42a0      	cmp	r0, r4
 80018e0:	d0f1      	beq.n	80018c6 <TIM_OC3_SetConfig+0x36>
 80018e2:	f504 6480 	add.w	r4, r4, #1024	; 0x400
 80018e6:	42a0      	cmp	r0, r4
 80018e8:	d0ed      	beq.n	80018c6 <TIM_OC3_SetConfig+0x36>
  }

  /* Write to TIMx CR2 */
  TIMx->CR2 = tmpcr2;
 80018ea:	6042      	str	r2, [r0, #4]

  /* Write to TIMx CCMR2 */
  TIMx->CCMR2 = tmpccmrx;

  /* Set the Capture Compare Register value */
  TIMx->CCR3 = OC_Config->Pulse;
 80018ec:	684a      	ldr	r2, [r1, #4]
  TIMx->CCMR2 = tmpccmrx;
 80018ee:	61c6      	str	r6, [r0, #28]
  TIMx->CCR3 = OC_Config->Pulse;
 80018f0:	63c2      	str	r2, [r0, #60]	; 0x3c

  /* Write to TIMx CCER */
  TIMx->CCER = tmpccer;
 80018f2:	6203      	str	r3, [r0, #32]
}
 80018f4:	bd70      	pop	{r4, r5, r6, pc}
 80018f6:	bf00      	nop
 80018f8:	40012c00 	.word	0x40012c00
 80018fc:	40014000 	.word	0x40014000
 8001900:	40014400 	.word	0x40014400

08001904 <TIM_OC4_SetConfig>:
  uint32_t tmpccmrx;
  uint32_t tmpccer;
  uint32_t tmpcr2;

  /* Disable the Channel 4: Reset the CC4E Bit */
  TIMx->CCER &= ~TIM_CCER_CC4E;
 8001904:	6a03      	ldr	r3, [r0, #32]
{
 8001906:	b530      	push	{r4, r5, lr}
  TIMx->CCER &= ~TIM_CCER_CC4E;
 8001908:	f423 5380 	bic.w	r3, r3, #4096	; 0x1000
 800190c:	6203      	str	r3, [r0, #32]

  /* Get the TIMx CCER register value */
  tmpccer = TIMx->CCER;
 800190e:	6a03      	ldr	r3, [r0, #32]
  /* Get the TIMx CR2 register value */
  tmpcr2 =  TIMx->CR2;
 8001910:	6844      	ldr	r4, [r0, #4]

  /* Get the TIMx CCMR2 register value */
  tmpccmrx = TIMx->CCMR2;
 8001912:	69c2      	ldr	r2, [r0, #28]
  /* Reset the Output Compare mode and Capture/Compare selection Bits */
  tmpccmrx &= ~TIM_CCMR2_OC4M;
  tmpccmrx &= ~TIM_CCMR2_CC4S;

  /* Select the Output Compare Mode */
  tmpccmrx |= (OC_Config->OCMode << 8U);
 8001914:	680d      	ldr	r5, [r1, #0]
  tmpccmrx &= ~TIM_CCMR2_CC4S;
 8001916:	f422 42e6 	bic.w	r2, r2, #29440	; 0x7300
  tmpccmrx |= (OC_Config->OCMode << 8U);
 800191a:	ea42 2205 	orr.w	r2, r2, r5, lsl #8

  /* Reset the Output Polarity level */
  tmpccer &= ~TIM_CCER_CC4P;
  /* Set the Output Compare Polarity */
  tmpccer |= (OC_Config->OCPolarity << 12U);
 800191e:	688d      	ldr	r5, [r1, #8]
  tmpccer &= ~TIM_CCER_CC4P;
 8001920:	f423 5300 	bic.w	r3, r3, #8192	; 0x2000
  tmpccer |= (OC_Config->OCPolarity << 12U);
 8001924:	ea43 3305 	orr.w	r3, r3, r5, lsl #12

  if (IS_TIM_BREAK_INSTANCE(TIMx))
 8001928:	4d0c      	ldr	r5, [pc, #48]	; (800195c <TIM_OC4_SetConfig+0x58>)
 800192a:	42a8      	cmp	r0, r5
 800192c:	d00b      	beq.n	8001946 <TIM_OC4_SetConfig+0x42>
 800192e:	f505 55a0 	add.w	r5, r5, #5120	; 0x1400
 8001932:	42a8      	cmp	r0, r5
 8001934:	d007      	beq.n	8001946 <TIM_OC4_SetConfig+0x42>
 8001936:	f505 6580 	add.w	r5, r5, #1024	; 0x400
 800193a:	42a8      	cmp	r0, r5
 800193c:	d003      	beq.n	8001946 <TIM_OC4_SetConfig+0x42>
 800193e:	f505 6580 	add.w	r5, r5, #1024	; 0x400
 8001942:	42a8      	cmp	r0, r5
 8001944:	d104      	bne.n	8001950 <TIM_OC4_SetConfig+0x4c>

    /* Reset the Output Compare IDLE State */
    tmpcr2 &= ~TIM_CR2_OIS4;

    /* Set the Output Idle state */
    tmpcr2 |= (OC_Config->OCIdleState << 6U);
 8001946:	694d      	ldr	r5, [r1, #20]
    tmpcr2 &= ~TIM_CR2_OIS4;
 8001948:	f424 4480 	bic.w	r4, r4, #16384	; 0x4000
    tmpcr2 |= (OC_Config->OCIdleState << 6U);
 800194c:	ea44 1485 	orr.w	r4, r4, r5, lsl #6
  }

  /* Write to TIMx CR2 */
  TIMx->CR2 = tmpcr2;
 8001950:	6044      	str	r4, [r0, #4]

  /* Write to TIMx CCMR2 */
  TIMx->CCMR2 = tmpccmrx;
 8001952:	61c2      	str	r2, [r0, #28]

  /* Set the Capture Compare Register value */
  TIMx->CCR4 = OC_Config->Pulse;
 8001954:	684a      	ldr	r2, [r1, #4]
 8001956:	6402      	str	r2, [r0, #64]	; 0x40

  /* Write to TIMx CCER */
  TIMx->CCER = tmpccer;
 8001958:	6203      	str	r3, [r0, #32]
 800195a:	bd30      	pop	{r4, r5, pc}
 800195c:	40012c00 	.word	0x40012c00

08001960 <HAL_TIM_Base_Start_IT>:
  __HAL_TIM_ENABLE_IT(htim, TIM_IT_UPDATE);
 8001960:	6803      	ldr	r3, [r0, #0]
}
 8001962:	2000      	movs	r0, #0
  __HAL_TIM_ENABLE_IT(htim, TIM_IT_UPDATE);
 8001964:	68da      	ldr	r2, [r3, #12]
 8001966:	f042 0201 	orr.w	r2, r2, #1
 800196a:	60da      	str	r2, [r3, #12]
  tmpsmcr = htim->Instance->SMCR & TIM_SMCR_SMS;
 800196c:	689a      	ldr	r2, [r3, #8]
 800196e:	f002 0207 	and.w	r2, r2, #7
  if (!IS_TIM_SLAVEMODE_TRIGGER_ENABLED(tmpsmcr))
 8001972:	2a06      	cmp	r2, #6
    __HAL_TIM_ENABLE(htim);
 8001974:	bf1e      	ittt	ne
 8001976:	681a      	ldrne	r2, [r3, #0]
 8001978:	f042 0201 	orrne.w	r2, r2, #1
 800197c:	601a      	strne	r2, [r3, #0]
}
 800197e:	4770      	bx	lr

08001980 <HAL_TIM_Base_Stop_IT>:
  __HAL_TIM_DISABLE_IT(htim, TIM_IT_UPDATE);
 8001980:	6803      	ldr	r3, [r0, #0]
 8001982:	68da      	ldr	r2, [r3, #12]
 8001984:	f022 0201 	bic.w	r2, r2, #1
 8001988:	60da      	str	r2, [r3, #12]
  __HAL_TIM_DISABLE(htim);
 800198a:	f241 1211 	movw	r2, #4369	; 0x1111
 800198e:	6a19      	ldr	r1, [r3, #32]
 8001990:	4211      	tst	r1, r2
 8001992:	d108      	bne.n	80019a6 <HAL_TIM_Base_Stop_IT+0x26>
 8001994:	f240 4244 	movw	r2, #1092	; 0x444
 8001998:	6a19      	ldr	r1, [r3, #32]
 800199a:	4211      	tst	r1, r2
 800199c:	bf02      	ittt	eq
 800199e:	681a      	ldreq	r2, [r3, #0]
 80019a0:	f022 0201 	biceq.w	r2, r2, #1
 80019a4:	601a      	streq	r2, [r3, #0]
}
 80019a6:	2000      	movs	r0, #0
 80019a8:	4770      	bx	lr

080019aa <HAL_TIM_PeriodElapsedCallback>:
 80019aa:	4770      	bx	lr

080019ac <HAL_TIM_OC_DelayElapsedCallback>:
 80019ac:	4770      	bx	lr

080019ae <HAL_TIM_IC_CaptureCallback>:
 80019ae:	4770      	bx	lr

080019b0 <HAL_TIM_PWM_PulseFinishedCallback>:
 80019b0:	4770      	bx	lr

080019b2 <HAL_TIM_TriggerCallback>:
 80019b2:	4770      	bx	lr

080019b4 <HAL_TIM_IRQHandler>:
  if (__HAL_TIM_GET_FLAG(htim, TIM_FLAG_CC1) != RESET)
 80019b4:	6803      	ldr	r3, [r0, #0]
{
 80019b6:	b510      	push	{r4, lr}
  if (__HAL_TIM_GET_FLAG(htim, TIM_FLAG_CC1) != RESET)
 80019b8:	691a      	ldr	r2, [r3, #16]
{
 80019ba:	4604      	mov	r4, r0
  if (__HAL_TIM_GET_FLAG(htim, TIM_FLAG_CC1) != RESET)
 80019bc:	0791      	lsls	r1, r2, #30
 80019be:	d50e      	bpl.n	80019de <HAL_TIM_IRQHandler+0x2a>
    if (__HAL_TIM_GET_IT_SOURCE(htim, TIM_IT_CC1) != RESET)
 80019c0:	68da      	ldr	r2, [r3, #12]
 80019c2:	0792      	lsls	r2, r2, #30
 80019c4:	d50b      	bpl.n	80019de <HAL_TIM_IRQHandler+0x2a>
        __HAL_TIM_CLEAR_IT(htim, TIM_IT_CC1);
 80019c6:	f06f 0202 	mvn.w	r2, #2
 80019ca:	611a      	str	r2, [r3, #16]
        htim->Channel = HAL_TIM_ACTIVE_CHANNEL_1;
 80019cc:	2201      	movs	r2, #1
        if ((htim->Instance->CCMR1 & TIM_CCMR1_CC1S) != 0x00U)
 80019ce:	699b      	ldr	r3, [r3, #24]
        htim->Channel = HAL_TIM_ACTIVE_CHANNEL_1;
 80019d0:	7702      	strb	r2, [r0, #28]
        if ((htim->Instance->CCMR1 & TIM_CCMR1_CC1S) != 0x00U)
 80019d2:	079b      	lsls	r3, r3, #30
 80019d4:	d077      	beq.n	8001ac6 <HAL_TIM_IRQHandler+0x112>
          HAL_TIM_IC_CaptureCallback(htim);
 80019d6:	f7ff ffea 	bl	80019ae <HAL_TIM_IC_CaptureCallback>
        htim->Channel = HAL_TIM_ACTIVE_CHANNEL_CLEARED;
 80019da:	2300      	movs	r3, #0
 80019dc:	7723      	strb	r3, [r4, #28]
  if (__HAL_TIM_GET_FLAG(htim, TIM_FLAG_CC2) != RESET)
 80019de:	6823      	ldr	r3, [r4, #0]
 80019e0:	691a      	ldr	r2, [r3, #16]
 80019e2:	0750      	lsls	r0, r2, #29
 80019e4:	d510      	bpl.n	8001a08 <HAL_TIM_IRQHandler+0x54>
    if (__HAL_TIM_GET_IT_SOURCE(htim, TIM_IT_CC2) != RESET)
 80019e6:	68da      	ldr	r2, [r3, #12]
 80019e8:	0751      	lsls	r1, r2, #29
 80019ea:	d50d      	bpl.n	8001a08 <HAL_TIM_IRQHandler+0x54>
      __HAL_TIM_CLEAR_IT(htim, TIM_IT_CC2);
 80019ec:	f06f 0204 	mvn.w	r2, #4
 80019f0:	611a      	str	r2, [r3, #16]
      htim->Channel = HAL_TIM_ACTIVE_CHANNEL_2;
 80019f2:	2202      	movs	r2, #2
      if ((htim->Instance->CCMR1 & TIM_CCMR1_CC2S) != 0x00U)
 80019f4:	699b      	ldr	r3, [r3, #24]
      htim->Channel = HAL_TIM_ACTIVE_CHANNEL_2;
 80019f6:	7722      	strb	r2, [r4, #28]
      if ((htim->Instance->CCMR1 & TIM_CCMR1_CC2S) != 0x00U)
 80019f8:	f413 7f40 	tst.w	r3, #768	; 0x300
        HAL_TIM_IC_CaptureCallback(htim);
 80019fc:	4620      	mov	r0, r4
      if ((htim->Instance->CCMR1 & TIM_CCMR1_CC2S) != 0x00U)
 80019fe:	d068      	beq.n	8001ad2 <HAL_TIM_IRQHandler+0x11e>
        HAL_TIM_IC_CaptureCallback(htim);
 8001a00:	f7ff ffd5 	bl	80019ae <HAL_TIM_IC_CaptureCallback>
      htim->Channel = HAL_TIM_ACTIVE_CHANNEL_CLEARED;
 8001a04:	2300      	movs	r3, #0
 8001a06:	7723      	strb	r3, [r4, #28]
  if (__HAL_TIM_GET_FLAG(htim, TIM_FLAG_CC3) != RESET)
 8001a08:	6823      	ldr	r3, [r4, #0]
 8001a0a:	691a      	ldr	r2, [r3, #16]
 8001a0c:	0712      	lsls	r2, r2, #28
 8001a0e:	d50f      	bpl.n	8001a30 <HAL_TIM_IRQHandler+0x7c>
    if (__HAL_TIM_GET_IT_SOURCE(htim, TIM_IT_CC3) != RESET)
 8001a10:	68da      	ldr	r2, [r3, #12]
 8001a12:	0710      	lsls	r0, r2, #28
 8001a14:	d50c      	bpl.n	8001a30 <HAL_TIM_IRQHandler+0x7c>
      __HAL_TIM_CLEAR_IT(htim, TIM_IT_CC3);
 8001a16:	f06f 0208 	mvn.w	r2, #8
 8001a1a:	611a      	str	r2, [r3, #16]
      htim->Channel = HAL_TIM_ACTIVE_CHANNEL_3;
 8001a1c:	2204      	movs	r2, #4
      if ((htim->Instance->CCMR2 & TIM_CCMR2_CC3S) != 0x00U)
 8001a1e:	69db      	ldr	r3, [r3, #28]
      htim->Channel = HAL_TIM_ACTIVE_CHANNEL_3;
 8001a20:	7722      	strb	r2, [r4, #28]
      if ((htim->Instance->CCMR2 & TIM_CCMR2_CC3S) != 0x00U)
 8001a22:	0799      	lsls	r1, r3, #30
        HAL_TIM_IC_CaptureCallback(htim);
 8001a24:	4620      	mov	r0, r4
      if ((htim->Instance->CCMR2 & TIM_CCMR2_CC3S) != 0x00U)
 8001a26:	d05a      	beq.n	8001ade <HAL_TIM_IRQHandler+0x12a>
        HAL_TIM_IC_CaptureCallback(htim);
 8001a28:	f7ff ffc1 	bl	80019ae <HAL_TIM_IC_CaptureCallback>
      htim->Channel = HAL_TIM_ACTIVE_CHANNEL_CLEARED;
 8001a2c:	2300      	movs	r3, #0
 8001a2e:	7723      	strb	r3, [r4, #28]
  if (__HAL_TIM_GET_FLAG(htim, TIM_FLAG_CC4) != RESET)
 8001a30:	6823      	ldr	r3, [r4, #0]
 8001a32:	691a      	ldr	r2, [r3, #16]
 8001a34:	06d2      	lsls	r2, r2, #27
 8001a36:	d510      	bpl.n	8001a5a <HAL_TIM_IRQHandler+0xa6>
    if (__HAL_TIM_GET_IT_SOURCE(htim, TIM_IT_CC4) != RESET)
 8001a38:	68da      	ldr	r2, [r3, #12]
 8001a3a:	06d0      	lsls	r0, r2, #27
 8001a3c:	d50d      	bpl.n	8001a5a <HAL_TIM_IRQHandler+0xa6>
      __HAL_TIM_CLEAR_IT(htim, TIM_IT_CC4);
 8001a3e:	f06f 0210 	mvn.w	r2, #16
 8001a42:	611a      	str	r2, [r3, #16]
      htim->Channel = HAL_TIM_ACTIVE_CHANNEL_4;
 8001a44:	2208      	movs	r2, #8
      if ((htim->Instance->CCMR2 & TIM_CCMR2_CC4S) != 0x00U)
 8001a46:	69db      	ldr	r3, [r3, #28]
      htim->Channel = HAL_TIM_ACTIVE_CHANNEL_4;
 8001a48:	7722      	strb	r2, [r4, #28]
      if ((htim->Instance->CCMR2 & TIM_CCMR2_CC4S) != 0x00U)
 8001a4a:	f413 7f40 	tst.w	r3, #768	; 0x300
        HAL_TIM_IC_CaptureCallback(htim);
 8001a4e:	4620      	mov	r0, r4
      if ((htim->Instance->CCMR2 & TIM_CCMR2_CC4S) != 0x00U)
 8001a50:	d04b      	beq.n	8001aea <HAL_TIM_IRQHandler+0x136>
        HAL_TIM_IC_CaptureCallback(htim);
 8001a52:	f7ff ffac 	bl	80019ae <HAL_TIM_IC_CaptureCallback>
      htim->Channel = HAL_TIM_ACTIVE_CHANNEL_CLEARED;
 8001a56:	2300      	movs	r3, #0
 8001a58:	7723      	strb	r3, [r4, #28]
  if (__HAL_TIM_GET_FLAG(htim, TIM_FLAG_UPDATE) != RESET)
 8001a5a:	6823      	ldr	r3, [r4, #0]
 8001a5c:	691a      	ldr	r2, [r3, #16]
 8001a5e:	07d1      	lsls	r1, r2, #31
 8001a60:	d508      	bpl.n	8001a74 <HAL_TIM_IRQHandler+0xc0>
    if (__HAL_TIM_GET_IT_SOURCE(htim, TIM_IT_UPDATE) != RESET)
 8001a62:	68da      	ldr	r2, [r3, #12]
 8001a64:	07d2      	lsls	r2, r2, #31
 8001a66:	d505      	bpl.n	8001a74 <HAL_TIM_IRQHandler+0xc0>
      __HAL_TIM_CLEAR_IT(htim, TIM_IT_UPDATE);
 8001a68:	f06f 0201 	mvn.w	r2, #1
      HAL_TIM_PeriodElapsedCallback(htim);
 8001a6c:	4620      	mov	r0, r4
      __HAL_TIM_CLEAR_IT(htim, TIM_IT_UPDATE);
 8001a6e:	611a      	str	r2, [r3, #16]
      HAL_TIM_PeriodElapsedCallback(htim);
 8001a70:	f7ff ff9b 	bl	80019aa <HAL_TIM_PeriodElapsedCallback>
  if (__HAL_TIM_GET_FLAG(htim, TIM_FLAG_BREAK) != RESET)
 8001a74:	6823      	ldr	r3, [r4, #0]
 8001a76:	691a      	ldr	r2, [r3, #16]
 8001a78:	0610      	lsls	r0, r2, #24
 8001a7a:	d508      	bpl.n	8001a8e <HAL_TIM_IRQHandler+0xda>
    if (__HAL_TIM_GET_IT_SOURCE(htim, TIM_IT_BREAK) != RESET)
 8001a7c:	68da      	ldr	r2, [r3, #12]
 8001a7e:	0611      	lsls	r1, r2, #24
 8001a80:	d505      	bpl.n	8001a8e <HAL_TIM_IRQHandler+0xda>
      __HAL_TIM_CLEAR_IT(htim, TIM_IT_BREAK);
 8001a82:	f06f 0280 	mvn.w	r2, #128	; 0x80
      HAL_TIMEx_BreakCallback(htim);
 8001a86:	4620      	mov	r0, r4
      __HAL_TIM_CLEAR_IT(htim, TIM_IT_BREAK);
 8001a88:	611a      	str	r2, [r3, #16]
      HAL_TIMEx_BreakCallback(htim);
 8001a8a:	f000 f942 	bl	8001d12 <HAL_TIMEx_BreakCallback>
  if (__HAL_TIM_GET_FLAG(htim, TIM_FLAG_TRIGGER) != RESET)
 8001a8e:	6823      	ldr	r3, [r4, #0]
 8001a90:	691a      	ldr	r2, [r3, #16]
 8001a92:	0652      	lsls	r2, r2, #25
 8001a94:	d508      	bpl.n	8001aa8 <HAL_TIM_IRQHandler+0xf4>
    if (__HAL_TIM_GET_IT_SOURCE(htim, TIM_IT_TRIGGER) != RESET)
 8001a96:	68da      	ldr	r2, [r3, #12]
 8001a98:	0650      	lsls	r0, r2, #25
 8001a9a:	d505      	bpl.n	8001aa8 <HAL_TIM_IRQHandler+0xf4>
      __HAL_TIM_CLEAR_IT(htim, TIM_IT_TRIGGER);
 8001a9c:	f06f 0240 	mvn.w	r2, #64	; 0x40
      HAL_TIM_TriggerCallback(htim);
 8001aa0:	4620      	mov	r0, r4
      __HAL_TIM_CLEAR_IT(htim, TIM_IT_TRIGGER);
 8001aa2:	611a      	str	r2, [r3, #16]
      HAL_TIM_TriggerCallback(htim);
 8001aa4:	f7ff ff85 	bl	80019b2 <HAL_TIM_TriggerCallback>
  if (__HAL_TIM_GET_FLAG(htim, TIM_FLAG_COM) != RESET)
 8001aa8:	6823      	ldr	r3, [r4, #0]
 8001aaa:	691a      	ldr	r2, [r3, #16]
 8001aac:	0691      	lsls	r1, r2, #26
 8001aae:	d522      	bpl.n	8001af6 <HAL_TIM_IRQHandler+0x142>
    if (__HAL_TIM_GET_IT_SOURCE(htim, TIM_IT_COM) != RESET)
 8001ab0:	68da      	ldr	r2, [r3, #12]
 8001ab2:	0692      	lsls	r2, r2, #26
 8001ab4:	d51f      	bpl.n	8001af6 <HAL_TIM_IRQHandler+0x142>
      __HAL_TIM_CLEAR_IT(htim, TIM_FLAG_COM);
 8001ab6:	f06f 0220 	mvn.w	r2, #32
      HAL_TIMEx_CommutCallback(htim);
 8001aba:	4620      	mov	r0, r4
}
 8001abc:	e8bd 4010 	ldmia.w	sp!, {r4, lr}
      __HAL_TIM_CLEAR_IT(htim, TIM_FLAG_COM);
 8001ac0:	611a      	str	r2, [r3, #16]
      HAL_TIMEx_CommutCallback(htim);
 8001ac2:	f000 b925 	b.w	8001d10 <HAL_TIMEx_CommutCallback>
          HAL_TIM_OC_DelayElapsedCallback(htim);
 8001ac6:	f7ff ff71 	bl	80019ac <HAL_TIM_OC_DelayElapsedCallback>
          HAL_TIM_PWM_PulseFinishedCallback(htim);
 8001aca:	4620      	mov	r0, r4
 8001acc:	f7ff ff70 	bl	80019b0 <HAL_TIM_PWM_PulseFinishedCallback>
 8001ad0:	e783      	b.n	80019da <HAL_TIM_IRQHandler+0x26>
        HAL_TIM_OC_DelayElapsedCallback(htim);
 8001ad2:	f7ff ff6b 	bl	80019ac <HAL_TIM_OC_DelayElapsedCallback>
        HAL_TIM_PWM_PulseFinishedCallback(htim);
 8001ad6:	4620      	mov	r0, r4
 8001ad8:	f7ff ff6a 	bl	80019b0 <HAL_TIM_PWM_PulseFinishedCallback>
 8001adc:	e792      	b.n	8001a04 <HAL_TIM_IRQHandler+0x50>
        HAL_TIM_OC_DelayElapsedCallback(htim);
 8001ade:	f7ff ff65 	bl	80019ac <HAL_TIM_OC_DelayElapsedCallback>
        HAL_TIM_PWM_PulseFinishedCallback(htim);
 8001ae2:	4620      	mov	r0, r4
 8001ae4:	f7ff ff64 	bl	80019b0 <HAL_TIM_PWM_PulseFinishedCallback>
 8001ae8:	e7a0      	b.n	8001a2c <HAL_TIM_IRQHandler+0x78>
        HAL_TIM_OC_DelayElapsedCallback(htim);
 8001aea:	f7ff ff5f 	bl	80019ac <HAL_TIM_OC_DelayElapsedCallback>
        HAL_TIM_PWM_PulseFinishedCallback(htim);
 8001aee:	4620      	mov	r0, r4
 8001af0:	f7ff ff5e 	bl	80019b0 <HAL_TIM_PWM_PulseFinishedCallback>
 8001af4:	e7af      	b.n	8001a56 <HAL_TIM_IRQHandler+0xa2>
 8001af6:	bd10      	pop	{r4, pc}

08001af8 <TIM_Base_SetConfig>:
  if (IS_TIM_COUNTER_MODE_SELECT_INSTANCE(TIMx))
 8001af8:	4a26      	ldr	r2, [pc, #152]	; (8001b94 <TIM_Base_SetConfig+0x9c>)
  tmpcr1 = TIMx->CR1;
 8001afa:	6803      	ldr	r3, [r0, #0]
  if (IS_TIM_COUNTER_MODE_SELECT_INSTANCE(TIMx))
 8001afc:	4290      	cmp	r0, r2
 8001afe:	d00a      	beq.n	8001b16 <TIM_Base_SetConfig+0x1e>
 8001b00:	f1b0 4f80 	cmp.w	r0, #1073741824	; 0x40000000
 8001b04:	d007      	beq.n	8001b16 <TIM_Base_SetConfig+0x1e>
 8001b06:	f5a2 3294 	sub.w	r2, r2, #75776	; 0x12800
 8001b0a:	4290      	cmp	r0, r2
 8001b0c:	d003      	beq.n	8001b16 <TIM_Base_SetConfig+0x1e>
 8001b0e:	f502 6280 	add.w	r2, r2, #1024	; 0x400
 8001b12:	4290      	cmp	r0, r2
 8001b14:	d111      	bne.n	8001b3a <TIM_Base_SetConfig+0x42>
    tmpcr1 |= Structure->CounterMode;
 8001b16:	684a      	ldr	r2, [r1, #4]
    tmpcr1 &= ~(TIM_CR1_DIR | TIM_CR1_CMS);
 8001b18:	f023 0370 	bic.w	r3, r3, #112	; 0x70
    tmpcr1 |= Structure->CounterMode;
 8001b1c:	4313      	orrs	r3, r2
  if (IS_TIM_CLOCK_DIVISION_INSTANCE(TIMx))
 8001b1e:	4a1d      	ldr	r2, [pc, #116]	; (8001b94 <TIM_Base_SetConfig+0x9c>)
 8001b20:	4290      	cmp	r0, r2
 8001b22:	d015      	beq.n	8001b50 <TIM_Base_SetConfig+0x58>
 8001b24:	f1b0 4f80 	cmp.w	r0, #1073741824	; 0x40000000
 8001b28:	d012      	beq.n	8001b50 <TIM_Base_SetConfig+0x58>
 8001b2a:	f5a2 3294 	sub.w	r2, r2, #75776	; 0x12800
 8001b2e:	4290      	cmp	r0, r2
 8001b30:	d00e      	beq.n	8001b50 <TIM_Base_SetConfig+0x58>
 8001b32:	f502 6280 	add.w	r2, r2, #1024	; 0x400
 8001b36:	4290      	cmp	r0, r2
 8001b38:	d00a      	beq.n	8001b50 <TIM_Base_SetConfig+0x58>
 8001b3a:	4a17      	ldr	r2, [pc, #92]	; (8001b98 <TIM_Base_SetConfig+0xa0>)
 8001b3c:	4290      	cmp	r0, r2
 8001b3e:	d007      	beq.n	8001b50 <TIM_Base_SetConfig+0x58>
 8001b40:	f502 6280 	add.w	r2, r2, #1024	; 0x400
 8001b44:	4290      	cmp	r0, r2
 8001b46:	d003      	beq.n	8001b50 <TIM_Base_SetConfig+0x58>
 8001b48:	f502 6280 	add.w	r2, r2, #1024	; 0x400
 8001b4c:	4290      	cmp	r0, r2
 8001b4e:	d103      	bne.n	8001b58 <TIM_Base_SetConfig+0x60>
    tmpcr1 |= (uint32_t)Structure->ClockDivision;
 8001b50:	68ca      	ldr	r2, [r1, #12]
    tmpcr1 &= ~TIM_CR1_CKD;
 8001b52:	f423 7340 	bic.w	r3, r3, #768	; 0x300
    tmpcr1 |= (uint32_t)Structure->ClockDivision;
 8001b56:	4313      	orrs	r3, r2
  MODIFY_REG(tmpcr1, TIM_CR1_ARPE, Structure->AutoReloadPreload);
 8001b58:	694a      	ldr	r2, [r1, #20]
 8001b5a:	f023 0380 	bic.w	r3, r3, #128	; 0x80
 8001b5e:	4313      	orrs	r3, r2
  TIMx->CR1 = tmpcr1;
 8001b60:	6003      	str	r3, [r0, #0]
  TIMx->ARR = (uint32_t)Structure->Period ;
 8001b62:	688b      	ldr	r3, [r1, #8]
 8001b64:	62c3      	str	r3, [r0, #44]	; 0x2c
  TIMx->PSC = Structure->Prescaler;
 8001b66:	680b      	ldr	r3, [r1, #0]
 8001b68:	6283      	str	r3, [r0, #40]	; 0x28
  if (IS_TIM_REPETITION_COUNTER_INSTANCE(TIMx))
 8001b6a:	4b0a      	ldr	r3, [pc, #40]	; (8001b94 <TIM_Base_SetConfig+0x9c>)
 8001b6c:	4298      	cmp	r0, r3
 8001b6e:	d00b      	beq.n	8001b88 <TIM_Base_SetConfig+0x90>
 8001b70:	f503 53a0 	add.w	r3, r3, #5120	; 0x1400
 8001b74:	4298      	cmp	r0, r3
 8001b76:	d007      	beq.n	8001b88 <TIM_Base_SetConfig+0x90>
 8001b78:	f503 6380 	add.w	r3, r3, #1024	; 0x400
 8001b7c:	4298      	cmp	r0, r3
 8001b7e:	d003      	beq.n	8001b88 <TIM_Base_SetConfig+0x90>
 8001b80:	f503 6380 	add.w	r3, r3, #1024	; 0x400
 8001b84:	4298      	cmp	r0, r3
 8001b86:	d101      	bne.n	8001b8c <TIM_Base_SetConfig+0x94>
    TIMx->RCR = Structure->RepetitionCounter;
 8001b88:	690b      	ldr	r3, [r1, #16]
 8001b8a:	6303      	str	r3, [r0, #48]	; 0x30
  TIMx->EGR = TIM_EGR_UG;
 8001b8c:	2301      	movs	r3, #1
 8001b8e:	6143      	str	r3, [r0, #20]
 8001b90:	4770      	bx	lr
 8001b92:	bf00      	nop
 8001b94:	40012c00 	.word	0x40012c00
 8001b98:	40014000 	.word	0x40014000

08001b9c <HAL_TIM_Base_Init>:
{
 8001b9c:	b510      	push	{r4, lr}
  if (htim == NULL)
 8001b9e:	4604      	mov	r4, r0
 8001ba0:	b1a0      	cbz	r0, 8001bcc <HAL_TIM_Base_Init+0x30>
  if (htim->State == HAL_TIM_STATE_RESET)
 8001ba2:	f890 303d 	ldrb.w	r3, [r0, #61]	; 0x3d
 8001ba6:	f003 02ff 	and.w	r2, r3, #255	; 0xff
 8001baa:	b91b      	cbnz	r3, 8001bb4 <HAL_TIM_Base_Init+0x18>
    htim->Lock = HAL_UNLOCKED;
 8001bac:	f880 203c 	strb.w	r2, [r0, #60]	; 0x3c
    HAL_TIM_Base_MspInit(htim);
 8001bb0:	f000 fcd2 	bl	8002558 <HAL_TIM_Base_MspInit>
  htim->State = HAL_TIM_STATE_BUSY;
 8001bb4:	2302      	movs	r3, #2
  TIM_Base_SetConfig(htim->Instance, &htim->Init);
 8001bb6:	6820      	ldr	r0, [r4, #0]
  htim->State = HAL_TIM_STATE_BUSY;
 8001bb8:	f884 303d 	strb.w	r3, [r4, #61]	; 0x3d
  TIM_Base_SetConfig(htim->Instance, &htim->Init);
 8001bbc:	1d21      	adds	r1, r4, #4
 8001bbe:	f7ff ff9b 	bl	8001af8 <TIM_Base_SetConfig>
  htim->State = HAL_TIM_STATE_READY;
 8001bc2:	2301      	movs	r3, #1
  return HAL_OK;
 8001bc4:	2000      	movs	r0, #0
  htim->State = HAL_TIM_STATE_READY;
 8001bc6:	f884 303d 	strb.w	r3, [r4, #61]	; 0x3d
  return HAL_OK;
 8001bca:	bd10      	pop	{r4, pc}
    return HAL_ERROR;
 8001bcc:	2001      	movs	r0, #1
}
 8001bce:	bd10      	pop	{r4, pc}

08001bd0 <HAL_TIM_OC_Init>:
{
 8001bd0:	b510      	push	{r4, lr}
  if (htim == NULL)
 8001bd2:	4604      	mov	r4, r0
 8001bd4:	b1a0      	cbz	r0, 8001c00 <HAL_TIM_OC_Init+0x30>
  if (htim->State == HAL_TIM_STATE_RESET)
 8001bd6:	f890 303d 	ldrb.w	r3, [r0, #61]	; 0x3d
 8001bda:	f003 02ff 	and.w	r2, r3, #255	; 0xff
 8001bde:	b91b      	cbnz	r3, 8001be8 <HAL_TIM_OC_Init+0x18>
    htim->Lock = HAL_UNLOCKED;
 8001be0:	f880 203c 	strb.w	r2, [r0, #60]	; 0x3c
    HAL_TIM_OC_MspInit(htim);
 8001be4:	f000 fc9a 	bl	800251c <HAL_TIM_OC_MspInit>
  htim->State = HAL_TIM_STATE_BUSY;
 8001be8:	2302      	movs	r3, #2
  TIM_Base_SetConfig(htim->Instance,  &htim->Init);
 8001bea:	6820      	ldr	r0, [r4, #0]
  htim->State = HAL_TIM_STATE_BUSY;
 8001bec:	f884 303d 	strb.w	r3, [r4, #61]	; 0x3d
  TIM_Base_SetConfig(htim->Instance,  &htim->Init);
 8001bf0:	1d21      	adds	r1, r4, #4
 8001bf2:	f7ff ff81 	bl	8001af8 <TIM_Base_SetConfig>
  htim->State = HAL_TIM_STATE_READY;
 8001bf6:	2301      	movs	r3, #1
  return HAL_OK;
 8001bf8:	2000      	movs	r0, #0
  htim->State = HAL_TIM_STATE_READY;
 8001bfa:	f884 303d 	strb.w	r3, [r4, #61]	; 0x3d
  return HAL_OK;
 8001bfe:	bd10      	pop	{r4, pc}
    return HAL_ERROR;
 8001c00:	2001      	movs	r0, #1
}
 8001c02:	bd10      	pop	{r4, pc}

08001c04 <TIM_OC2_SetConfig>:
  TIMx->CCER &= ~TIM_CCER_CC2E;
 8001c04:	6a03      	ldr	r3, [r0, #32]
{
 8001c06:	b570      	push	{r4, r5, r6, lr}
  TIMx->CCER &= ~TIM_CCER_CC2E;
 8001c08:	f023 0310 	bic.w	r3, r3, #16
 8001c0c:	6203      	str	r3, [r0, #32]
  tmpccer = TIMx->CCER;
 8001c0e:	6a03      	ldr	r3, [r0, #32]
  tmpcr2 =  TIMx->CR2;
 8001c10:	6842      	ldr	r2, [r0, #4]
  tmpccmrx = TIMx->CCMR1;
 8001c12:	6984      	ldr	r4, [r0, #24]
  tmpccmrx |= (OC_Config->OCMode << 8U);
 8001c14:	680e      	ldr	r6, [r1, #0]
  tmpccmrx &= ~TIM_CCMR1_CC2S;
 8001c16:	f424 44e6 	bic.w	r4, r4, #29440	; 0x7300
  tmpccmrx |= (OC_Config->OCMode << 8U);
 8001c1a:	ea44 2606 	orr.w	r6, r4, r6, lsl #8
  tmpccer |= (OC_Config->OCPolarity << 4U);
 8001c1e:	688c      	ldr	r4, [r1, #8]
  tmpccer &= ~TIM_CCER_CC2P;
 8001c20:	f023 0320 	bic.w	r3, r3, #32
  tmpccer |= (OC_Config->OCPolarity << 4U);
 8001c24:	ea43 1304 	orr.w	r3, r3, r4, lsl #4
  if (IS_TIM_CCXN_INSTANCE(TIMx, TIM_CHANNEL_2))
 8001c28:	4c10      	ldr	r4, [pc, #64]	; (8001c6c <TIM_OC2_SetConfig+0x68>)
 8001c2a:	42a0      	cmp	r0, r4
 8001c2c:	d10e      	bne.n	8001c4c <TIM_OC2_SetConfig+0x48>
    tmpccer |= (OC_Config->OCNPolarity << 4U);
 8001c2e:	68cc      	ldr	r4, [r1, #12]
    tmpccer &= ~TIM_CCER_CC2NP;
 8001c30:	f023 0380 	bic.w	r3, r3, #128	; 0x80
    tmpccer |= (OC_Config->OCNPolarity << 4U);
 8001c34:	ea43 1304 	orr.w	r3, r3, r4, lsl #4
    tmpccer &= ~TIM_CCER_CC2NE;
 8001c38:	f023 0340 	bic.w	r3, r3, #64	; 0x40
    tmpcr2 |= (OC_Config->OCIdleState << 2U);
 8001c3c:	694c      	ldr	r4, [r1, #20]
    tmpcr2 |= (OC_Config->OCNIdleState << 2U);
 8001c3e:	698d      	ldr	r5, [r1, #24]
    tmpcr2 &= ~TIM_CR2_OIS2N;
 8001c40:	f422 6240 	bic.w	r2, r2, #3072	; 0xc00
    tmpcr2 |= (OC_Config->OCNIdleState << 2U);
 8001c44:	432c      	orrs	r4, r5
 8001c46:	ea42 0284 	orr.w	r2, r2, r4, lsl #2
 8001c4a:	e009      	b.n	8001c60 <TIM_OC2_SetConfig+0x5c>
  if (IS_TIM_BREAK_INSTANCE(TIMx))
 8001c4c:	4d08      	ldr	r5, [pc, #32]	; (8001c70 <TIM_OC2_SetConfig+0x6c>)
 8001c4e:	42a8      	cmp	r0, r5
 8001c50:	d0f4      	beq.n	8001c3c <TIM_OC2_SetConfig+0x38>
 8001c52:	4c08      	ldr	r4, [pc, #32]	; (8001c74 <TIM_OC2_SetConfig+0x70>)
 8001c54:	42a0      	cmp	r0, r4
 8001c56:	d0f1      	beq.n	8001c3c <TIM_OC2_SetConfig+0x38>
 8001c58:	f504 6480 	add.w	r4, r4, #1024	; 0x400
 8001c5c:	42a0      	cmp	r0, r4
 8001c5e:	d0ed      	beq.n	8001c3c <TIM_OC2_SetConfig+0x38>
  TIMx->CR2 = tmpcr2;
 8001c60:	6042      	str	r2, [r0, #4]
  TIMx->CCR2 = OC_Config->Pulse;
 8001c62:	684a      	ldr	r2, [r1, #4]
  TIMx->CCMR1 = tmpccmrx;
 8001c64:	6186      	str	r6, [r0, #24]
  TIMx->CCR2 = OC_Config->Pulse;
 8001c66:	6382      	str	r2, [r0, #56]	; 0x38
  TIMx->CCER = tmpccer;
 8001c68:	6203      	str	r3, [r0, #32]
}
 8001c6a:	bd70      	pop	{r4, r5, r6, pc}
 8001c6c:	40012c00 	.word	0x40012c00
 8001c70:	40014000 	.word	0x40014000
 8001c74:	40014400 	.word	0x40014400

08001c78 <HAL_TIM_OC_ConfigChannel>:
{
 8001c78:	b538      	push	{r3, r4, r5, lr}
  __HAL_LOCK(htim);
 8001c7a:	f890 303c 	ldrb.w	r3, [r0, #60]	; 0x3c
{
 8001c7e:	4604      	mov	r4, r0
  __HAL_LOCK(htim);
 8001c80:	2b01      	cmp	r3, #1
 8001c82:	f04f 0002 	mov.w	r0, #2
 8001c86:	d018      	beq.n	8001cba <HAL_TIM_OC_ConfigChannel+0x42>
 8001c88:	2301      	movs	r3, #1
  htim->State = HAL_TIM_STATE_BUSY;
 8001c8a:	f884 003d 	strb.w	r0, [r4, #61]	; 0x3d
  __HAL_LOCK(htim);
 8001c8e:	f884 303c 	strb.w	r3, [r4, #60]	; 0x3c
 8001c92:	461d      	mov	r5, r3
  switch (Channel)
 8001c94:	2a0c      	cmp	r2, #12
 8001c96:	d80b      	bhi.n	8001cb0 <HAL_TIM_OC_ConfigChannel+0x38>
 8001c98:	e8df f002 	tbb	[pc, r2]
 8001c9c:	0a0a0a07 	.word	0x0a0a0a07
 8001ca0:	0a0a0a10 	.word	0x0a0a0a10
 8001ca4:	0a0a0a14 	.word	0x0a0a0a14
 8001ca8:	18          	.byte	0x18
 8001ca9:	00          	.byte	0x00
      TIM_OC1_SetConfig(htim->Instance, sConfig);
 8001caa:	6820      	ldr	r0, [r4, #0]
 8001cac:	f7ff fdae 	bl	800180c <TIM_OC1_SetConfig>
  __HAL_UNLOCK(htim);
 8001cb0:	2000      	movs	r0, #0
  htim->State = HAL_TIM_STATE_READY;
 8001cb2:	f884 503d 	strb.w	r5, [r4, #61]	; 0x3d
  __HAL_UNLOCK(htim);
 8001cb6:	f884 003c 	strb.w	r0, [r4, #60]	; 0x3c
}
 8001cba:	bd38      	pop	{r3, r4, r5, pc}
      TIM_OC2_SetConfig(htim->Instance, sConfig);
 8001cbc:	6820      	ldr	r0, [r4, #0]
 8001cbe:	f7ff ffa1 	bl	8001c04 <TIM_OC2_SetConfig>
      break;
 8001cc2:	e7f5      	b.n	8001cb0 <HAL_TIM_OC_ConfigChannel+0x38>
      TIM_OC3_SetConfig(htim->Instance, sConfig);
 8001cc4:	6820      	ldr	r0, [r4, #0]
 8001cc6:	f7ff fde3 	bl	8001890 <TIM_OC3_SetConfig>
      break;
 8001cca:	e7f1      	b.n	8001cb0 <HAL_TIM_OC_ConfigChannel+0x38>
      TIM_OC4_SetConfig(htim->Instance, sConfig);
 8001ccc:	6820      	ldr	r0, [r4, #0]
 8001cce:	f7ff fe19 	bl	8001904 <TIM_OC4_SetConfig>
      break;
 8001cd2:	e7ed      	b.n	8001cb0 <HAL_TIM_OC_ConfigChannel+0x38>

08001cd4 <HAL_TIMEx_MasterConfigSynchronization>:
  assert_param(IS_TIM_SYNCHRO_INSTANCE(htim->Instance));
  assert_param(IS_TIM_TRGO_SOURCE(sMasterConfig->MasterOutputTrigger));
  assert_param(IS_TIM_MSM_STATE(sMasterConfig->MasterSlaveMode));

  /* Check input state */
  __HAL_LOCK(htim);
 8001cd4:	f890 303c 	ldrb.w	r3, [r0, #60]	; 0x3c
{
 8001cd8:	b530      	push	{r4, r5, lr}
  __HAL_LOCK(htim);
 8001cda:	2b01      	cmp	r3, #1
 8001cdc:	f04f 0302 	mov.w	r3, #2
 8001ce0:	d014      	beq.n	8001d0c <HAL_TIMEx_MasterConfigSynchronization+0x38>

  /* Change the handler state */
  htim->State = HAL_TIM_STATE_BUSY;

  /* Get the TIMx CR2 register value */
  tmpcr2 = htim->Instance->CR2;
 8001ce2:	6804      	ldr	r4, [r0, #0]
  htim->State = HAL_TIM_STATE_BUSY;
 8001ce4:	f880 303d 	strb.w	r3, [r0, #61]	; 0x3d
  tmpcr2 = htim->Instance->CR2;
 8001ce8:	6862      	ldr	r2, [r4, #4]

  /* Get the TIMx SMCR register value */
  tmpsmcr = htim->Instance->SMCR;
 8001cea:	68a3      	ldr	r3, [r4, #8]

  /* Reset the MMS Bits */
  tmpcr2 &= ~TIM_CR2_MMS;
  /* Select the TRGO source */
  tmpcr2 |=  sMasterConfig->MasterOutputTrigger;
 8001cec:	680d      	ldr	r5, [r1, #0]

  /* Reset the MSM Bit */
  tmpsmcr &= ~TIM_SMCR_MSM;
  /* Set master mode */
  tmpsmcr |= sMasterConfig->MasterSlaveMode;
 8001cee:	6849      	ldr	r1, [r1, #4]
  tmpcr2 &= ~TIM_CR2_MMS;
 8001cf0:	f022 0270 	bic.w	r2, r2, #112	; 0x70
  tmpsmcr &= ~TIM_SMCR_MSM;
 8001cf4:	f023 0380 	bic.w	r3, r3, #128	; 0x80
  tmpsmcr |= sMasterConfig->MasterSlaveMode;
 8001cf8:	430b      	orrs	r3, r1
  tmpcr2 |=  sMasterConfig->MasterOutputTrigger;
 8001cfa:	432a      	orrs	r2, r5

  /* Update TIMx CR2 */
  htim->Instance->CR2 = tmpcr2;
 8001cfc:	6062      	str	r2, [r4, #4]

  /* Update TIMx SMCR */
  htim->Instance->SMCR = tmpsmcr;
 8001cfe:	60a3      	str	r3, [r4, #8]

  /* Change the htim state */
  htim->State = HAL_TIM_STATE_READY;
 8001d00:	2301      	movs	r3, #1
 8001d02:	f880 303d 	strb.w	r3, [r0, #61]	; 0x3d

  __HAL_UNLOCK(htim);
 8001d06:	2300      	movs	r3, #0
 8001d08:	f880 303c 	strb.w	r3, [r0, #60]	; 0x3c
  __HAL_LOCK(htim);
 8001d0c:	4618      	mov	r0, r3

  return HAL_OK;
}
 8001d0e:	bd30      	pop	{r4, r5, pc}

08001d10 <HAL_TIMEx_CommutCallback>:
 8001d10:	4770      	bx	lr

08001d12 <HAL_TIMEx_BreakCallback>:
  * @brief  Hall Break detection callback in non-blocking mode
  * @param  htim TIM handle
  * @retval None
  */
__weak void HAL_TIMEx_BreakCallback(TIM_HandleTypeDef *htim)
{
 8001d12:	4770      	bx	lr

08001d14 <enableClock>:
}

// enables GPIO RCC Clock
void enableClock(void)
{  
  if(_port == GPIOA)
 8001d14:	4b24      	ldr	r3, [pc, #144]	; (8001da8 <enableClock+0x94>)
 8001d16:	4a25      	ldr	r2, [pc, #148]	; (8001dac <enableClock+0x98>)
 8001d18:	681b      	ldr	r3, [r3, #0]
{  
 8001d1a:	b086      	sub	sp, #24
  if(_port == GPIOA)
 8001d1c:	4293      	cmp	r3, r2
 8001d1e:	d10b      	bne.n	8001d38 <enableClock+0x24>
		__HAL_RCC_GPIOA_CLK_ENABLE();
 8001d20:	4b23      	ldr	r3, [pc, #140]	; (8001db0 <enableClock+0x9c>)
 8001d22:	699a      	ldr	r2, [r3, #24]
 8001d24:	f042 0204 	orr.w	r2, r2, #4
 8001d28:	619a      	str	r2, [r3, #24]
 8001d2a:	699b      	ldr	r3, [r3, #24]
 8001d2c:	f003 0304 	and.w	r3, r3, #4
 8001d30:	9301      	str	r3, [sp, #4]
 8001d32:	9b01      	ldr	r3, [sp, #4]
		__HAL_RCC_GPIOE_CLK_ENABLE();
	//else if(_port == GPIOF)
	//	__HAL_RCC_GPIOF_CLK_ENABLE();

  // if you have a port that is not listed add it below the other else ifs
}
 8001d34:	b006      	add	sp, #24
 8001d36:	4770      	bx	lr
  else if(_port == GPIOB)
 8001d38:	4a1e      	ldr	r2, [pc, #120]	; (8001db4 <enableClock+0xa0>)
 8001d3a:	4293      	cmp	r3, r2
 8001d3c:	d10a      	bne.n	8001d54 <enableClock+0x40>
		__HAL_RCC_GPIOB_CLK_ENABLE();
 8001d3e:	4b1c      	ldr	r3, [pc, #112]	; (8001db0 <enableClock+0x9c>)
 8001d40:	699a      	ldr	r2, [r3, #24]
 8001d42:	f042 0208 	orr.w	r2, r2, #8
 8001d46:	619a      	str	r2, [r3, #24]
 8001d48:	699b      	ldr	r3, [r3, #24]
 8001d4a:	f003 0308 	and.w	r3, r3, #8
 8001d4e:	9302      	str	r3, [sp, #8]
 8001d50:	9b02      	ldr	r3, [sp, #8]
 8001d52:	e7ef      	b.n	8001d34 <enableClock+0x20>
	else if(_port == GPIOC)
 8001d54:	4a18      	ldr	r2, [pc, #96]	; (8001db8 <enableClock+0xa4>)
 8001d56:	4293      	cmp	r3, r2
 8001d58:	d10a      	bne.n	8001d70 <enableClock+0x5c>
		__HAL_RCC_GPIOC_CLK_ENABLE();
 8001d5a:	4b15      	ldr	r3, [pc, #84]	; (8001db0 <enableClock+0x9c>)
 8001d5c:	699a      	ldr	r2, [r3, #24]
 8001d5e:	f042 0210 	orr.w	r2, r2, #16
 8001d62:	619a      	str	r2, [r3, #24]
 8001d64:	699b      	ldr	r3, [r3, #24]
 8001d66:	f003 0310 	and.w	r3, r3, #16
 8001d6a:	9303      	str	r3, [sp, #12]
 8001d6c:	9b03      	ldr	r3, [sp, #12]
 8001d6e:	e7e1      	b.n	8001d34 <enableClock+0x20>
	else if(_port == GPIOD)
 8001d70:	4a12      	ldr	r2, [pc, #72]	; (8001dbc <enableClock+0xa8>)
 8001d72:	4293      	cmp	r3, r2
 8001d74:	d10a      	bne.n	8001d8c <enableClock+0x78>
		__HAL_RCC_GPIOD_CLK_ENABLE();
 8001d76:	4b0e      	ldr	r3, [pc, #56]	; (8001db0 <enableClock+0x9c>)
 8001d78:	699a      	ldr	r2, [r3, #24]
 8001d7a:	f042 0220 	orr.w	r2, r2, #32
 8001d7e:	619a      	str	r2, [r3, #24]
 8001d80:	699b      	ldr	r3, [r3, #24]
 8001d82:	f003 0320 	and.w	r3, r3, #32
 8001d86:	9304      	str	r3, [sp, #16]
 8001d88:	9b04      	ldr	r3, [sp, #16]
 8001d8a:	e7d3      	b.n	8001d34 <enableClock+0x20>
	else if(_port == GPIOE)
 8001d8c:	4a0c      	ldr	r2, [pc, #48]	; (8001dc0 <enableClock+0xac>)
 8001d8e:	4293      	cmp	r3, r2
 8001d90:	d1d0      	bne.n	8001d34 <enableClock+0x20>
		__HAL_RCC_GPIOE_CLK_ENABLE();
 8001d92:	4b07      	ldr	r3, [pc, #28]	; (8001db0 <enableClock+0x9c>)
 8001d94:	699a      	ldr	r2, [r3, #24]
 8001d96:	f042 0240 	orr.w	r2, r2, #64	; 0x40
 8001d9a:	619a      	str	r2, [r3, #24]
 8001d9c:	699b      	ldr	r3, [r3, #24]
 8001d9e:	f003 0340 	and.w	r3, r3, #64	; 0x40
 8001da2:	9305      	str	r3, [sp, #20]
 8001da4:	9b05      	ldr	r3, [sp, #20]
}
 8001da6:	e7c5      	b.n	8001d34 <enableClock+0x20>
 8001da8:	200000c0 	.word	0x200000c0
 8001dac:	40010800 	.word	0x40010800
 8001db0:	40021000 	.word	0x40021000
 8001db4:	40010c00 	.word	0x40010c00
 8001db8:	40011000 	.word	0x40011000
 8001dbc:	40011400 	.word	0x40011400
 8001dc0:	40011800 	.word	0x40011800

08001dc4 <pulseEnable>:
    write4bits(value>>4);
    write4bits(value);
  }
}

void pulseEnable(void) {
 8001dc4:	b538      	push	{r3, r4, r5, lr}
  HAL_GPIO_WritePin(_port, _enable_pin, GPIO_PIN_RESET);
 8001dc6:	4d0e      	ldr	r5, [pc, #56]	; (8001e00 <pulseEnable+0x3c>)
 8001dc8:	4c0e      	ldr	r4, [pc, #56]	; (8001e04 <pulseEnable+0x40>)
 8001dca:	8829      	ldrh	r1, [r5, #0]
 8001dcc:	2200      	movs	r2, #0
 8001dce:	6820      	ldr	r0, [r4, #0]
 8001dd0:	f7ff fab2 	bl	8001338 <HAL_GPIO_WritePin>
  HAL_Delay(1);    
 8001dd4:	2001      	movs	r0, #1
 8001dd6:	f7ff f94b 	bl	8001070 <HAL_Delay>
  HAL_GPIO_WritePin(_port, _enable_pin, GPIO_PIN_SET);
 8001dda:	8829      	ldrh	r1, [r5, #0]
 8001ddc:	2201      	movs	r2, #1
 8001dde:	6820      	ldr	r0, [r4, #0]
 8001de0:	f7ff faaa 	bl	8001338 <HAL_GPIO_WritePin>
  HAL_Delay(1);    // enable pulse must be >450ns
 8001de4:	2001      	movs	r0, #1
 8001de6:	f7ff f943 	bl	8001070 <HAL_Delay>
  HAL_GPIO_WritePin(_port, _enable_pin, GPIO_PIN_RESET);
 8001dea:	6820      	ldr	r0, [r4, #0]
 8001dec:	8829      	ldrh	r1, [r5, #0]
 8001dee:	2200      	movs	r2, #0
 8001df0:	f7ff faa2 	bl	8001338 <HAL_GPIO_WritePin>
  HAL_Delay(1);   // commands need > 37us to settle
}
 8001df4:	e8bd 4038 	ldmia.w	sp!, {r3, r4, r5, lr}
  HAL_Delay(1);   // commands need > 37us to settle
 8001df8:	2001      	movs	r0, #1
 8001dfa:	f7ff b939 	b.w	8001070 <HAL_Delay>
 8001dfe:	bf00      	nop
 8001e00:	200000d8 	.word	0x200000d8
 8001e04:	200000c0 	.word	0x200000c0

08001e08 <write4bits>:

void write4bits(uint8_t value) {
 8001e08:	b5f8      	push	{r3, r4, r5, r6, r7, lr}
 8001e0a:	4607      	mov	r7, r0
  for (int i = 0; i < 4; i++) {
 8001e0c:	2400      	movs	r4, #0
    HAL_GPIO_WritePin(_port, _data_pins[i], ((value >> i) & 0x01)?GPIO_PIN_SET:GPIO_PIN_RESET);
 8001e0e:	4e09      	ldr	r6, [pc, #36]	; (8001e34 <write4bits+0x2c>)
 8001e10:	4d09      	ldr	r5, [pc, #36]	; (8001e38 <write4bits+0x30>)
 8001e12:	fa47 f204 	asr.w	r2, r7, r4
 8001e16:	f836 1014 	ldrh.w	r1, [r6, r4, lsl #1]
 8001e1a:	f002 0201 	and.w	r2, r2, #1
 8001e1e:	6828      	ldr	r0, [r5, #0]
  for (int i = 0; i < 4; i++) {
 8001e20:	3401      	adds	r4, #1
    HAL_GPIO_WritePin(_port, _data_pins[i], ((value >> i) & 0x01)?GPIO_PIN_SET:GPIO_PIN_RESET);
 8001e22:	f7ff fa89 	bl	8001338 <HAL_GPIO_WritePin>
  for (int i = 0; i < 4; i++) {
 8001e26:	2c04      	cmp	r4, #4
 8001e28:	d1f3      	bne.n	8001e12 <write4bits+0xa>
  }

  pulseEnable();
}
 8001e2a:	e8bd 40f8 	ldmia.w	sp!, {r3, r4, r5, r6, r7, lr}
  pulseEnable();
 8001e2e:	f7ff bfc9 	b.w	8001dc4 <pulseEnable>
 8001e32:	bf00      	nop
 8001e34:	200000c6 	.word	0x200000c6
 8001e38:	200000c0 	.word	0x200000c0

08001e3c <write8bits>:

void write8bits(uint8_t value) {
 8001e3c:	b5f8      	push	{r3, r4, r5, r6, r7, lr}
 8001e3e:	4607      	mov	r7, r0
  for (int i = 0; i < 8; i++) {
 8001e40:	2400      	movs	r4, #0
    HAL_GPIO_WritePin(_port, _data_pins[i], ((value >> i) & 0x01)?GPIO_PIN_SET:GPIO_PIN_RESET);
 8001e42:	4e09      	ldr	r6, [pc, #36]	; (8001e68 <write8bits+0x2c>)
 8001e44:	4d09      	ldr	r5, [pc, #36]	; (8001e6c <write8bits+0x30>)
 8001e46:	fa47 f204 	asr.w	r2, r7, r4
 8001e4a:	f836 1014 	ldrh.w	r1, [r6, r4, lsl #1]
 8001e4e:	f002 0201 	and.w	r2, r2, #1
 8001e52:	6828      	ldr	r0, [r5, #0]
  for (int i = 0; i < 8; i++) {
 8001e54:	3401      	adds	r4, #1
    HAL_GPIO_WritePin(_port, _data_pins[i], ((value >> i) & 0x01)?GPIO_PIN_SET:GPIO_PIN_RESET);
 8001e56:	f7ff fa6f 	bl	8001338 <HAL_GPIO_WritePin>
  for (int i = 0; i < 8; i++) {
 8001e5a:	2c08      	cmp	r4, #8
 8001e5c:	d1f3      	bne.n	8001e46 <write8bits+0xa>
  }
  
  pulseEnable();
}
 8001e5e:	e8bd 40f8 	ldmia.w	sp!, {r3, r4, r5, r6, r7, lr}
  pulseEnable();
 8001e62:	f7ff bfaf 	b.w	8001dc4 <pulseEnable>
 8001e66:	bf00      	nop
 8001e68:	200000c6 	.word	0x200000c6
 8001e6c:	200000c0 	.word	0x200000c0

08001e70 <send>:
void send(uint8_t value, GPIO_PinState mode) {
 8001e70:	b538      	push	{r3, r4, r5, lr}
  HAL_GPIO_WritePin(_port, _rs_pin, mode);
 8001e72:	4b10      	ldr	r3, [pc, #64]	; (8001eb4 <send+0x44>)
 8001e74:	4d10      	ldr	r5, [pc, #64]	; (8001eb8 <send+0x48>)
 8001e76:	460a      	mov	r2, r1
void send(uint8_t value, GPIO_PinState mode) {
 8001e78:	4604      	mov	r4, r0
  HAL_GPIO_WritePin(_port, _rs_pin, mode);
 8001e7a:	8819      	ldrh	r1, [r3, #0]
 8001e7c:	6828      	ldr	r0, [r5, #0]
 8001e7e:	f7ff fa5b 	bl	8001338 <HAL_GPIO_WritePin>
  if (_rw_pin != 255) { 
 8001e82:	4b0e      	ldr	r3, [pc, #56]	; (8001ebc <send+0x4c>)
 8001e84:	8819      	ldrh	r1, [r3, #0]
 8001e86:	29ff      	cmp	r1, #255	; 0xff
 8001e88:	d003      	beq.n	8001e92 <send+0x22>
    HAL_GPIO_WritePin(_port, _rw_pin, GPIO_PIN_RESET);
 8001e8a:	2200      	movs	r2, #0
 8001e8c:	6828      	ldr	r0, [r5, #0]
 8001e8e:	f7ff fa53 	bl	8001338 <HAL_GPIO_WritePin>
  if (_displayfunction & LCD_8BITMODE) {
 8001e92:	4b0b      	ldr	r3, [pc, #44]	; (8001ec0 <send+0x50>)
 8001e94:	781b      	ldrb	r3, [r3, #0]
 8001e96:	06db      	lsls	r3, r3, #27
 8001e98:	d504      	bpl.n	8001ea4 <send+0x34>
    write8bits(value); 
 8001e9a:	4620      	mov	r0, r4
}
 8001e9c:	e8bd 4038 	ldmia.w	sp!, {r3, r4, r5, lr}
    write8bits(value); 
 8001ea0:	f7ff bfcc 	b.w	8001e3c <write8bits>
    write4bits(value>>4);
 8001ea4:	0920      	lsrs	r0, r4, #4
 8001ea6:	f7ff ffaf 	bl	8001e08 <write4bits>
    write4bits(value);
 8001eaa:	4620      	mov	r0, r4
}
 8001eac:	e8bd 4038 	ldmia.w	sp!, {r3, r4, r5, lr}
    write4bits(value);
 8001eb0:	f7ff bfaa 	b.w	8001e08 <write4bits>
 8001eb4:	200000da 	.word	0x200000da
 8001eb8:	200000c0 	.word	0x200000c0
 8001ebc:	200000bc 	.word	0x200000bc
 8001ec0:	200000d7 	.word	0x200000d7

08001ec4 <command>:
  send(value, GPIO_PIN_RESET);
 8001ec4:	2100      	movs	r1, #0
 8001ec6:	f7ff bfd3 	b.w	8001e70 <send>

08001eca <clear>:
{
 8001eca:	b508      	push	{r3, lr}
  command(LCD_CLEARDISPLAY);  // clear display, set cursor position to zero
 8001ecc:	2001      	movs	r0, #1
 8001ece:	f7ff fff9 	bl	8001ec4 <command>
}
 8001ed2:	e8bd 4008 	ldmia.w	sp!, {r3, lr}
  HAL_Delay(2);  // this command takes a long time!
 8001ed6:	2002      	movs	r0, #2
 8001ed8:	f7ff b8ca 	b.w	8001070 <HAL_Delay>

08001edc <setCursor>:
{
 8001edc:	2903      	cmp	r1, #3
 8001ede:	bf28      	it	cs
 8001ee0:	2103      	movcs	r1, #3
  if ( row >= _numlines ) {
 8001ee2:	4b07      	ldr	r3, [pc, #28]	; (8001f00 <setCursor+0x24>)
 8001ee4:	781b      	ldrb	r3, [r3, #0]
 8001ee6:	428b      	cmp	r3, r1
    row = _numlines - 1;    // we count rows starting w/0
 8001ee8:	bf9c      	itt	ls
 8001eea:	f103 33ff 	addls.w	r3, r3, #4294967295
 8001eee:	b2d9      	uxtbls	r1, r3
  command(LCD_SETDDRAMADDR | (col + _row_offsets[row]));
 8001ef0:	4b04      	ldr	r3, [pc, #16]	; (8001f04 <setCursor+0x28>)
 8001ef2:	5c5b      	ldrb	r3, [r3, r1]
 8001ef4:	4418      	add	r0, r3
 8001ef6:	f060 007f 	orn	r0, r0, #127	; 0x7f
 8001efa:	b2c0      	uxtb	r0, r0
 8001efc:	f7ff bfe2 	b.w	8001ec4 <command>
 8001f00:	200000c5 	.word	0x200000c5
 8001f04:	200000b8 	.word	0x200000b8

08001f08 <display>:
  _displaycontrol |= LCD_DISPLAYON;
 8001f08:	4b04      	ldr	r3, [pc, #16]	; (8001f1c <display+0x14>)
 8001f0a:	7818      	ldrb	r0, [r3, #0]
 8001f0c:	f040 0204 	orr.w	r2, r0, #4
  command(LCD_DISPLAYCONTROL | _displaycontrol);
 8001f10:	f040 000c 	orr.w	r0, r0, #12
  _displaycontrol |= LCD_DISPLAYON;
 8001f14:	701a      	strb	r2, [r3, #0]
  command(LCD_DISPLAYCONTROL | _displaycontrol);
 8001f16:	f7ff bfd5 	b.w	8001ec4 <command>
 8001f1a:	bf00      	nop
 8001f1c:	200000c4 	.word	0x200000c4

08001f20 <begin>:
void begin(uint8_t cols, uint8_t lines) {
 8001f20:	e92d 41ff 	stmdb	sp!, {r0, r1, r2, r3, r4, r5, r6, r7, r8, lr}
  _row_offsets[0] = row0;
 8001f24:	2200      	movs	r2, #0
 8001f26:	4c55      	ldr	r4, [pc, #340]	; (800207c <begin+0x15c>)
  if (lines > 1) {
 8001f28:	2901      	cmp	r1, #1
    _displayfunction |= LCD_2LINE;
 8001f2a:	bf82      	ittt	hi
 8001f2c:	7823      	ldrbhi	r3, [r4, #0]
 8001f2e:	f043 0308 	orrhi.w	r3, r3, #8
 8001f32:	7023      	strbhi	r3, [r4, #0]
  _numlines = lines;
 8001f34:	4b52      	ldr	r3, [pc, #328]	; (8002080 <begin+0x160>)
 8001f36:	7019      	strb	r1, [r3, #0]
  _row_offsets[0] = row0;
 8001f38:	4b52      	ldr	r3, [pc, #328]	; (8002084 <begin+0x164>)
 8001f3a:	701a      	strb	r2, [r3, #0]
  _row_offsets[1] = row1;
 8001f3c:	2240      	movs	r2, #64	; 0x40
  _row_offsets[2] = row2;
 8001f3e:	7098      	strb	r0, [r3, #2]
  setRowOffsets(0x00, 0x40, 0x00 + cols, 0x40 + cols);  
 8001f40:	4410      	add	r0, r2
  _row_offsets[1] = row1;
 8001f42:	705a      	strb	r2, [r3, #1]
  _row_offsets[3] = row3;
 8001f44:	70d8      	strb	r0, [r3, #3]
  if ((dotsize != LCD_5x8DOTS) && (lines == 1)) {
 8001f46:	4b50      	ldr	r3, [pc, #320]	; (8002088 <begin+0x168>)
 8001f48:	781b      	ldrb	r3, [r3, #0]
 8001f4a:	b12b      	cbz	r3, 8001f58 <begin+0x38>
 8001f4c:	2901      	cmp	r1, #1
    _displayfunction |= LCD_5x10DOTS;
 8001f4e:	bf02      	ittt	eq
 8001f50:	7823      	ldrbeq	r3, [r4, #0]
 8001f52:	f043 0304 	orreq.w	r3, r3, #4
 8001f56:	7023      	strbeq	r3, [r4, #0]
  enableClock();
 8001f58:	f7ff fedc 	bl	8001d14 <enableClock>
  gpio_init.Speed = GPIO_SPEED_FREQ_HIGH;
 8001f5c:	2303      	movs	r3, #3
 8001f5e:	9303      	str	r3, [sp, #12]
  gpio_init.Mode = GPIO_MODE_OUTPUT_PP;
 8001f60:	2301      	movs	r3, #1
 8001f62:	9301      	str	r3, [sp, #4]
  if(_fourbit_mode)
 8001f64:	4b49      	ldr	r3, [pc, #292]	; (800208c <begin+0x16c>)
 8001f66:	4f4a      	ldr	r7, [pc, #296]	; (8002090 <begin+0x170>)
 8001f68:	781b      	ldrb	r3, [r3, #0]
 8001f6a:	4d4a      	ldr	r5, [pc, #296]	; (8002094 <begin+0x174>)
 8001f6c:	4e4a      	ldr	r6, [pc, #296]	; (8002098 <begin+0x178>)
 8001f6e:	4a4b      	ldr	r2, [pc, #300]	; (800209c <begin+0x17c>)
 8001f70:	2b00      	cmp	r3, #0
 8001f72:	d059      	beq.n	8002028 <begin+0x108>
    gpio_init.Pin = _rs_pin | _rw_pin | _enable_pin | _data_pins[0] | _data_pins[1] | _data_pins[2] | _data_pins[3];
 8001f74:	8829      	ldrh	r1, [r5, #0]
 8001f76:	883b      	ldrh	r3, [r7, #0]
 8001f78:	430b      	orrs	r3, r1
 8001f7a:	8831      	ldrh	r1, [r6, #0]
 8001f7c:	430b      	orrs	r3, r1
 8001f7e:	8811      	ldrh	r1, [r2, #0]
 8001f80:	430b      	orrs	r3, r1
 8001f82:	8851      	ldrh	r1, [r2, #2]
 8001f84:	430b      	orrs	r3, r1
 8001f86:	8891      	ldrh	r1, [r2, #4]
 8001f88:	88d2      	ldrh	r2, [r2, #6]
 8001f8a:	430b      	orrs	r3, r1
  HAL_GPIO_Init(_port, &gpio_init);
 8001f8c:	f8df 8118 	ldr.w	r8, [pc, #280]	; 80020a8 <begin+0x188>
                    _data_pins[4] | _data_pins[5] | _data_pins[6] | _data_pins[7];
 8001f90:	4313      	orrs	r3, r2
 8001f92:	b29b      	uxth	r3, r3
  HAL_GPIO_Init(_port, &gpio_init);
 8001f94:	4669      	mov	r1, sp
 8001f96:	f8d8 0000 	ldr.w	r0, [r8]
                    _data_pins[4] | _data_pins[5] | _data_pins[6] | _data_pins[7];
 8001f9a:	9300      	str	r3, [sp, #0]
  HAL_GPIO_Init(_port, &gpio_init);
 8001f9c:	f7ff f8e4 	bl	8001168 <HAL_GPIO_Init>
  HAL_Delay(50); 
 8001fa0:	2032      	movs	r0, #50	; 0x32
 8001fa2:	f7ff f865 	bl	8001070 <HAL_Delay>
  HAL_GPIO_WritePin(_port, _rs_pin, GPIO_PIN_RESET);
 8001fa6:	2200      	movs	r2, #0
 8001fa8:	8839      	ldrh	r1, [r7, #0]
 8001faa:	f8d8 0000 	ldr.w	r0, [r8]
 8001fae:	f7ff f9c3 	bl	8001338 <HAL_GPIO_WritePin>
  HAL_GPIO_WritePin(_port, _enable_pin, GPIO_PIN_RESET);
 8001fb2:	8831      	ldrh	r1, [r6, #0]
 8001fb4:	2200      	movs	r2, #0
 8001fb6:	f8d8 0000 	ldr.w	r0, [r8]
 8001fba:	f7ff f9bd 	bl	8001338 <HAL_GPIO_WritePin>
  if (_rw_pin != 255) { 
 8001fbe:	8829      	ldrh	r1, [r5, #0]
 8001fc0:	29ff      	cmp	r1, #255	; 0xff
 8001fc2:	d004      	beq.n	8001fce <begin+0xae>
    HAL_GPIO_WritePin(_port, _rw_pin, GPIO_PIN_RESET);
 8001fc4:	2200      	movs	r2, #0
 8001fc6:	f8d8 0000 	ldr.w	r0, [r8]
 8001fca:	f7ff f9b5 	bl	8001338 <HAL_GPIO_WritePin>
  if (! (_displayfunction & LCD_8BITMODE)) {
 8001fce:	7820      	ldrb	r0, [r4, #0]
 8001fd0:	06c3      	lsls	r3, r0, #27
 8001fd2:	d43e      	bmi.n	8002052 <begin+0x132>
    write4bits(0x03);
 8001fd4:	2003      	movs	r0, #3
 8001fd6:	f7ff ff17 	bl	8001e08 <write4bits>
    HAL_Delay(5); // wait min 4.1ms
 8001fda:	2005      	movs	r0, #5
 8001fdc:	f7ff f848 	bl	8001070 <HAL_Delay>
    write4bits(0x03);
 8001fe0:	2003      	movs	r0, #3
 8001fe2:	f7ff ff11 	bl	8001e08 <write4bits>
    HAL_Delay(5); // wait min 4.1ms
 8001fe6:	2005      	movs	r0, #5
 8001fe8:	f7ff f842 	bl	8001070 <HAL_Delay>
    write4bits(0x03); 
 8001fec:	2003      	movs	r0, #3
 8001fee:	f7ff ff0b 	bl	8001e08 <write4bits>
    HAL_Delay(1);
 8001ff2:	2001      	movs	r0, #1
 8001ff4:	f7ff f83c 	bl	8001070 <HAL_Delay>
    write4bits(0x02); 
 8001ff8:	2002      	movs	r0, #2
 8001ffa:	f7ff ff05 	bl	8001e08 <write4bits>
  command(LCD_FUNCTIONSET | _displayfunction);  
 8001ffe:	7820      	ldrb	r0, [r4, #0]
 8002000:	f040 0020 	orr.w	r0, r0, #32
 8002004:	f7ff ff5e 	bl	8001ec4 <command>
  _displaycontrol = LCD_DISPLAYON | LCD_CURSOROFF | LCD_BLINKOFF;  
 8002008:	2204      	movs	r2, #4
 800200a:	4b25      	ldr	r3, [pc, #148]	; (80020a0 <begin+0x180>)
 800200c:	701a      	strb	r2, [r3, #0]
  display();
 800200e:	f7ff ff7b 	bl	8001f08 <display>
  clear();
 8002012:	f7ff ff5a 	bl	8001eca <clear>
  _displaymode = LCD_ENTRYLEFT | LCD_ENTRYSHIFTDECREMENT;
 8002016:	2202      	movs	r2, #2
 8002018:	4b22      	ldr	r3, [pc, #136]	; (80020a4 <begin+0x184>)
  command(LCD_ENTRYMODESET | _displaymode);
 800201a:	2006      	movs	r0, #6
  _displaymode = LCD_ENTRYLEFT | LCD_ENTRYSHIFTDECREMENT;
 800201c:	701a      	strb	r2, [r3, #0]
  command(LCD_ENTRYMODESET | _displaymode);
 800201e:	f7ff ff51 	bl	8001ec4 <command>
}
 8002022:	b004      	add	sp, #16
 8002024:	e8bd 81f0 	ldmia.w	sp!, {r4, r5, r6, r7, r8, pc}
                    _data_pins[4] | _data_pins[5] | _data_pins[6] | _data_pins[7];
 8002028:	8829      	ldrh	r1, [r5, #0]
 800202a:	883b      	ldrh	r3, [r7, #0]
 800202c:	430b      	orrs	r3, r1
 800202e:	8831      	ldrh	r1, [r6, #0]
 8002030:	430b      	orrs	r3, r1
 8002032:	8811      	ldrh	r1, [r2, #0]
 8002034:	430b      	orrs	r3, r1
 8002036:	8851      	ldrh	r1, [r2, #2]
 8002038:	430b      	orrs	r3, r1
 800203a:	8891      	ldrh	r1, [r2, #4]
 800203c:	430b      	orrs	r3, r1
 800203e:	88d1      	ldrh	r1, [r2, #6]
 8002040:	430b      	orrs	r3, r1
 8002042:	8911      	ldrh	r1, [r2, #8]
 8002044:	430b      	orrs	r3, r1
 8002046:	8951      	ldrh	r1, [r2, #10]
 8002048:	430b      	orrs	r3, r1
 800204a:	8991      	ldrh	r1, [r2, #12]
 800204c:	89d2      	ldrh	r2, [r2, #14]
 800204e:	430b      	orrs	r3, r1
 8002050:	e79c      	b.n	8001f8c <begin+0x6c>
    command(LCD_FUNCTIONSET | _displayfunction);
 8002052:	f040 0020 	orr.w	r0, r0, #32
 8002056:	f7ff ff35 	bl	8001ec4 <command>
    HAL_Delay(5);  // wait more than 4.1ms
 800205a:	2005      	movs	r0, #5
 800205c:	f7ff f808 	bl	8001070 <HAL_Delay>
    command(LCD_FUNCTIONSET | _displayfunction);
 8002060:	7820      	ldrb	r0, [r4, #0]
 8002062:	f040 0020 	orr.w	r0, r0, #32
 8002066:	f7ff ff2d 	bl	8001ec4 <command>
    HAL_Delay(1);
 800206a:	2001      	movs	r0, #1
 800206c:	f7ff f800 	bl	8001070 <HAL_Delay>
    command(LCD_FUNCTIONSET | _displayfunction);
 8002070:	7820      	ldrb	r0, [r4, #0]
 8002072:	f040 0020 	orr.w	r0, r0, #32
 8002076:	f7ff ff25 	bl	8001ec4 <command>
 800207a:	e7c0      	b.n	8001ffe <begin+0xde>
 800207c:	200000d7 	.word	0x200000d7
 8002080:	200000c5 	.word	0x200000c5
 8002084:	200000b8 	.word	0x200000b8
 8002088:	200000a4 	.word	0x200000a4
 800208c:	20000008 	.word	0x20000008
 8002090:	200000da 	.word	0x200000da
 8002094:	200000bc 	.word	0x200000bc
 8002098:	200000d8 	.word	0x200000d8
 800209c:	200000c6 	.word	0x200000c6
 80020a0:	200000c4 	.word	0x200000c4
 80020a4:	200000d6 	.word	0x200000d6
 80020a8:	200000c0 	.word	0x200000c0

080020ac <init>:
{
 80020ac:	e92d 4ff0 	stmdb	sp!, {r4, r5, r6, r7, r8, r9, sl, fp, lr}
  _rs_pin = rs;
 80020b0:	f8df b07c 	ldr.w	fp, [pc, #124]	; 8002130 <init+0x84>
{
 80020b4:	f8bd a024 	ldrh.w	sl, [sp, #36]	; 0x24
  _rs_pin = rs;
 80020b8:	f8ab 2000 	strh.w	r2, [fp]
  _rw_pin = rw;
 80020bc:	4a17      	ldr	r2, [pc, #92]	; (800211c <init+0x70>)
{
 80020be:	f8bd 9028 	ldrh.w	r9, [sp, #40]	; 0x28
  _rw_pin = rw;
 80020c2:	8013      	strh	r3, [r2, #0]
  _enable_pin = enable;
 80020c4:	4b16      	ldr	r3, [pc, #88]	; (8002120 <init+0x74>)
{
 80020c6:	f8bd 802c 	ldrh.w	r8, [sp, #44]	; 0x2c
  _enable_pin = enable;
 80020ca:	f8a3 a000 	strh.w	sl, [r3]
  _port = gpioport;
 80020ce:	4b15      	ldr	r3, [pc, #84]	; (8002124 <init+0x78>)
{
 80020d0:	f8bd c030 	ldrh.w	ip, [sp, #48]	; 0x30
  _port = gpioport;
 80020d4:	6019      	str	r1, [r3, #0]
{
 80020d6:	f8bd e034 	ldrh.w	lr, [sp, #52]	; 0x34
  _data_pins[0] = d0;
 80020da:	4b13      	ldr	r3, [pc, #76]	; (8002128 <init+0x7c>)
{
 80020dc:	f8bd 7038 	ldrh.w	r7, [sp, #56]	; 0x38
 80020e0:	f8bd 603c 	ldrh.w	r6, [sp, #60]	; 0x3c
 80020e4:	f8bd 5040 	ldrh.w	r5, [sp, #64]	; 0x40
 80020e8:	f8bd 4044 	ldrh.w	r4, [sp, #68]	; 0x44
  _data_pins[0] = d0;
 80020ec:	f8a3 9000 	strh.w	r9, [r3]
  _data_pins[1] = d1;
 80020f0:	f8a3 8002 	strh.w	r8, [r3, #2]
  _data_pins[2] = d2;
 80020f4:	f8a3 c004 	strh.w	ip, [r3, #4]
  _data_pins[3] = d3; 
 80020f8:	f8a3 e006 	strh.w	lr, [r3, #6]
  _data_pins[4] = d4;
 80020fc:	811f      	strh	r7, [r3, #8]
  _data_pins[5] = d5;
 80020fe:	815e      	strh	r6, [r3, #10]
  _data_pins[6] = d6;
 8002100:	819d      	strh	r5, [r3, #12]
  _data_pins[7] = d7;
 8002102:	81dc      	strh	r4, [r3, #14]
 8002104:	4b09      	ldr	r3, [pc, #36]	; (800212c <init+0x80>)
  if (fourbitmode)
 8002106:	b138      	cbz	r0, 8002118 <init+0x6c>
    _displayfunction = LCD_4BITMODE | LCD_1LINE | LCD_5x8DOTS;
 8002108:	2200      	movs	r2, #0
    _displayfunction = LCD_8BITMODE | LCD_1LINE | LCD_5x8DOTS;
 800210a:	701a      	strb	r2, [r3, #0]
  begin(16, 2);
 800210c:	2102      	movs	r1, #2
}
 800210e:	e8bd 4ff0 	ldmia.w	sp!, {r4, r5, r6, r7, r8, r9, sl, fp, lr}
  begin(16, 2);
 8002112:	2010      	movs	r0, #16
 8002114:	f7ff bf04 	b.w	8001f20 <begin>
    _displayfunction = LCD_8BITMODE | LCD_1LINE | LCD_5x8DOTS;
 8002118:	2210      	movs	r2, #16
 800211a:	e7f6      	b.n	800210a <init+0x5e>
 800211c:	200000bc 	.word	0x200000bc
 8002120:	200000d8 	.word	0x200000d8
 8002124:	200000c0 	.word	0x200000c0
 8002128:	200000c6 	.word	0x200000c6
 800212c:	200000d7 	.word	0x200000d7
 8002130:	200000da 	.word	0x200000da

08002134 <LiquidCrystal>:
{
 8002134:	b5f0      	push	{r4, r5, r6, r7, lr}
 8002136:	4605      	mov	r5, r0
  if(_fourbit_mode)
 8002138:	4814      	ldr	r0, [pc, #80]	; (800218c <LiquidCrystal+0x58>)
{
 800213a:	b08b      	sub	sp, #44	; 0x2c
  if(_fourbit_mode)
 800213c:	7800      	ldrb	r0, [r0, #0]
{
 800213e:	f8bd 6040 	ldrh.w	r6, [sp, #64]	; 0x40
 8002142:	f8bd 7044 	ldrh.w	r7, [sp, #68]	; 0x44
 8002146:	f8bd e048 	ldrh.w	lr, [sp, #72]	; 0x48
 800214a:	f8bd c04c 	ldrh.w	ip, [sp, #76]	; 0x4c
  if(_fourbit_mode)
 800214e:	b180      	cbz	r0, 8002172 <LiquidCrystal+0x3e>
    init(1, gpioport, rs, rw, enable, d0, d1, d2, d3, 0, 0, 0, 0);
 8002150:	2400      	movs	r4, #0
 8002152:	e88d 40c8 	stmia.w	sp, {r3, r6, r7, lr}
 8002156:	2001      	movs	r0, #1
 8002158:	4613      	mov	r3, r2
 800215a:	460a      	mov	r2, r1
 800215c:	4629      	mov	r1, r5
 800215e:	9408      	str	r4, [sp, #32]
 8002160:	9407      	str	r4, [sp, #28]
 8002162:	9406      	str	r4, [sp, #24]
 8002164:	9405      	str	r4, [sp, #20]
 8002166:	f8cd c010 	str.w	ip, [sp, #16]
    init(0, gpioport, rs, rw, enable, d0, d1, d2, d3, 0, 0, 0, 0);
 800216a:	f7ff ff9f 	bl	80020ac <init>
}
 800216e:	b00b      	add	sp, #44	; 0x2c
 8002170:	bdf0      	pop	{r4, r5, r6, r7, pc}
    init(0, gpioport, rs, rw, enable, d0, d1, d2, d3, 0, 0, 0, 0);
 8002172:	e88d 40c8 	stmia.w	sp, {r3, r6, r7, lr}
 8002176:	9008      	str	r0, [sp, #32]
 8002178:	4613      	mov	r3, r2
 800217a:	9007      	str	r0, [sp, #28]
 800217c:	460a      	mov	r2, r1
 800217e:	9006      	str	r0, [sp, #24]
 8002180:	9005      	str	r0, [sp, #20]
 8002182:	f8cd c010 	str.w	ip, [sp, #16]
 8002186:	4629      	mov	r1, r5
 8002188:	e7ef      	b.n	800216a <LiquidCrystal+0x36>
 800218a:	bf00      	nop
 800218c:	20000008 	.word	0x20000008

08002190 <blink>:
  _displaycontrol |= LCD_BLINKON;
 8002190:	4b04      	ldr	r3, [pc, #16]	; (80021a4 <blink+0x14>)
 8002192:	7818      	ldrb	r0, [r3, #0]
 8002194:	f040 0201 	orr.w	r2, r0, #1
  command(LCD_DISPLAYCONTROL | _displaycontrol);
 8002198:	f040 0009 	orr.w	r0, r0, #9
  _displaycontrol |= LCD_BLINKON;
 800219c:	701a      	strb	r2, [r3, #0]
  command(LCD_DISPLAYCONTROL | _displaycontrol);
 800219e:	f7ff be91 	b.w	8001ec4 <command>
 80021a2:	bf00      	nop
 80021a4:	200000c4 	.word	0x200000c4

080021a8 <print>:
size_t print(const char str[]) {
 80021a8:	b570      	push	{r4, r5, r6, lr}
  if (str == NULL) return 0;
 80021aa:	4604      	mov	r4, r0
 80021ac:	b168      	cbz	r0, 80021ca <print+0x22>
  size_t size = strlen(str);
 80021ae:	f7fe f82f 	bl	8000210 <strlen>
 80021b2:	4605      	mov	r5, r0
 80021b4:	1826      	adds	r6, r4, r0
  while (size--) {
 80021b6:	42b4      	cmp	r4, r6
 80021b8:	d101      	bne.n	80021be <print+0x16>
}
 80021ba:	4628      	mov	r0, r5
 80021bc:	bd70      	pop	{r4, r5, r6, pc}
  send(value, GPIO_PIN_SET);
 80021be:	2101      	movs	r1, #1
 80021c0:	f814 0b01 	ldrb.w	r0, [r4], #1
 80021c4:	f7ff fe54 	bl	8001e70 <send>
 80021c8:	e7f5      	b.n	80021b6 <print+0xe>
  if (str == NULL) return 0;
 80021ca:	4605      	mov	r5, r0
 80021cc:	e7f5      	b.n	80021ba <print+0x12>
	...

080021d0 <GetTimeType>:

#include "Menu.h"

char* GetTimeType(int value)
{
	if(value == centi)
 80021d0:	b150      	cbz	r0, 80021e8 <GetTimeType+0x18>
	{
		return "centi ";
	}else if(value == seconds)
 80021d2:	2801      	cmp	r0, #1
 80021d4:	d00a      	beq.n	80021ec <GetTimeType+0x1c>
	{
		return "sec   ";
	}else if(value == minutes)
 80021d6:	2802      	cmp	r0, #2
 80021d8:	d00a      	beq.n	80021f0 <GetTimeType+0x20>
		return "min   ";
	}else if(value == hours)
	{
		return "hr    ";
	}
	return "NONE  ";
 80021da:	4a06      	ldr	r2, [pc, #24]	; (80021f4 <GetTimeType+0x24>)
 80021dc:	4b06      	ldr	r3, [pc, #24]	; (80021f8 <GetTimeType+0x28>)
 80021de:	2803      	cmp	r0, #3
 80021e0:	bf0c      	ite	eq
 80021e2:	4618      	moveq	r0, r3
 80021e4:	4610      	movne	r0, r2
 80021e6:	4770      	bx	lr
		return "centi ";
 80021e8:	4804      	ldr	r0, [pc, #16]	; (80021fc <GetTimeType+0x2c>)
 80021ea:	4770      	bx	lr
		return "sec   ";
 80021ec:	4804      	ldr	r0, [pc, #16]	; (8002200 <GetTimeType+0x30>)
 80021ee:	4770      	bx	lr
		return "min   ";
 80021f0:	4804      	ldr	r0, [pc, #16]	; (8002204 <GetTimeType+0x34>)
}
 80021f2:	4770      	bx	lr
 80021f4:	080033e8 	.word	0x080033e8
 80021f8:	080033e1 	.word	0x080033e1
 80021fc:	080033cc 	.word	0x080033cc
 8002200:	080033d3 	.word	0x080033d3
 8002204:	080033da 	.word	0x080033da

08002208 <GetDesiredPeriodandPrescaler>:

#include "Timer.h"


unsigned int GetDesiredPeriodandPrescaler(float DesiredDelay)//seconds(desired second for period)
{
 8002208:	b508      	push	{r3, lr}
	unsigned int clockspeed = 62500;//clock speed(timer clock? or system clock? or ABP1/2) not sure how to get will change
	unsigned int periodPrescaler = 0;
	periodPrescaler = sqrt((double)clockspeed * (double)DesiredDelay)+1;
 800220a:	f7fe f96d 	bl	80004e8 <__aeabi_f2d>
 800220e:	a30a      	add	r3, pc, #40	; (adr r3, 8002238 <GetDesiredPeriodandPrescaler+0x30>)
 8002210:	e9d3 2300 	ldrd	r2, r3, [r3]
 8002214:	f7fe f9bc 	bl	8000590 <__aeabi_dmul>
 8002218:	f000 ffba 	bl	8003190 <sqrt>
 800221c:	2200      	movs	r2, #0
 800221e:	4b08      	ldr	r3, [pc, #32]	; (8002240 <GetDesiredPeriodandPrescaler+0x38>)
 8002220:	f7fe f804 	bl	800022c <__adddf3>
 8002224:	f7fe fc64 	bl	8000af0 <__aeabi_d2uiz>

	if(periodPrescaler >= INT_16BIT_MAX)
		periodPrescaler = INT_16BIT_MAX - 1;

	return periodPrescaler;
}
 8002228:	f64f 73ff 	movw	r3, #65535	; 0xffff
 800222c:	4298      	cmp	r0, r3
 800222e:	bf28      	it	cs
 8002230:	4618      	movcs	r0, r3
 8002232:	bd08      	pop	{r3, pc}
 8002234:	f3af 8000 	nop.w
 8002238:	00000000 	.word	0x00000000
 800223c:	40ee8480 	.word	0x40ee8480
 8002240:	3ff00000 	.word	0x3ff00000

08002244 <SystemClock_Config>:
/**
  * @brief System Clock Configuration
  * @retval None
  */
void SystemClock_Config(void)
{
 8002244:	b500      	push	{lr}
 8002246:	b091      	sub	sp, #68	; 0x44
  RCC_OscInitTypeDef RCC_OscInitStruct = {0};
 8002248:	2228      	movs	r2, #40	; 0x28
 800224a:	2100      	movs	r1, #0
 800224c:	a806      	add	r0, sp, #24
 800224e:	f000 fb6b 	bl	8002928 <memset>
  RCC_ClkInitTypeDef RCC_ClkInitStruct = {0};
 8002252:	2214      	movs	r2, #20
 8002254:	2100      	movs	r1, #0
 8002256:	a801      	add	r0, sp, #4
 8002258:	f000 fb66 	bl	8002928 <memset>

  /** Initializes the CPU, AHB and APB busses clocks 
  */
  RCC_OscInitStruct.OscillatorType = RCC_OSCILLATORTYPE_HSI;
 800225c:	2302      	movs	r3, #2
 800225e:	9306      	str	r3, [sp, #24]
  RCC_OscInitStruct.HSIState = RCC_HSI_ON;
 8002260:	2301      	movs	r3, #1
 8002262:	930a      	str	r3, [sp, #40]	; 0x28
  RCC_OscInitStruct.HSICalibrationValue = RCC_HSICALIBRATION_DEFAULT;
 8002264:	2310      	movs	r3, #16
  RCC_OscInitStruct.PLL.PLLState = RCC_PLL_NONE;
  if (HAL_RCC_OscConfig(&RCC_OscInitStruct) != HAL_OK)
 8002266:	a806      	add	r0, sp, #24
  RCC_OscInitStruct.HSICalibrationValue = RCC_HSICALIBRATION_DEFAULT;
 8002268:	930b      	str	r3, [sp, #44]	; 0x2c
  if (HAL_RCC_OscConfig(&RCC_OscInitStruct) != HAL_OK)
 800226a:	f7ff f87d 	bl	8001368 <HAL_RCC_OscConfig>
  {
    Error_Handler();
  }
  /** Initializes the CPU, AHB and APB busses clocks 
  */
  RCC_ClkInitStruct.ClockType = RCC_CLOCKTYPE_HCLK|RCC_CLOCKTYPE_SYSCLK
 800226e:	230f      	movs	r3, #15
 8002270:	9301      	str	r3, [sp, #4]
                              |RCC_CLOCKTYPE_PCLK1|RCC_CLOCKTYPE_PCLK2;
  RCC_ClkInitStruct.SYSCLKSource = RCC_SYSCLKSOURCE_HSI;
  RCC_ClkInitStruct.AHBCLKDivider = RCC_SYSCLK_DIV16;
 8002272:	23b0      	movs	r3, #176	; 0xb0
  RCC_ClkInitStruct.SYSCLKSource = RCC_SYSCLKSOURCE_HSI;
 8002274:	2100      	movs	r1, #0
  RCC_ClkInitStruct.AHBCLKDivider = RCC_SYSCLK_DIV16;
 8002276:	9303      	str	r3, [sp, #12]
  RCC_ClkInitStruct.APB1CLKDivider = RCC_HCLK_DIV16;
 8002278:	f44f 63e0 	mov.w	r3, #1792	; 0x700
  RCC_ClkInitStruct.APB2CLKDivider = RCC_HCLK_DIV1;

  if (HAL_RCC_ClockConfig(&RCC_ClkInitStruct, FLASH_LATENCY_0) != HAL_OK)
 800227c:	a801      	add	r0, sp, #4
  RCC_ClkInitStruct.SYSCLKSource = RCC_SYSCLKSOURCE_HSI;
 800227e:	9102      	str	r1, [sp, #8]
  RCC_ClkInitStruct.APB1CLKDivider = RCC_HCLK_DIV16;
 8002280:	9304      	str	r3, [sp, #16]
  RCC_ClkInitStruct.APB2CLKDivider = RCC_HCLK_DIV1;
 8002282:	9105      	str	r1, [sp, #20]
  if (HAL_RCC_ClockConfig(&RCC_ClkInitStruct, FLASH_LATENCY_0) != HAL_OK)
 8002284:	f7ff fa52 	bl	800172c <HAL_RCC_ClockConfig>
  {
    Error_Handler();
  }
}
 8002288:	b011      	add	sp, #68	; 0x44
 800228a:	f85d fb04 	ldr.w	pc, [sp], #4
	...

08002290 <main>:
{
 8002290:	e92d 47f0 	stmdb	sp!, {r4, r5, r6, r7, r8, r9, sl, lr}
 8002294:	b096      	sub	sp, #88	; 0x58
  HAL_Init();
 8002296:	f7fe fecd 	bl	8001034 <HAL_Init>
  SystemClock_Config();
 800229a:	f7ff ffd3 	bl	8002244 <SystemClock_Config>
  * @param None
  * @retval None
  */
static void MX_GPIO_Init(void)
{
  GPIO_InitTypeDef GPIO_InitStruct = {0};
 800229e:	2210      	movs	r2, #16
 80022a0:	2100      	movs	r1, #0
 80022a2:	a809      	add	r0, sp, #36	; 0x24
 80022a4:	f000 fb40 	bl	8002928 <memset>

  /* GPIO Ports Clock Enable */
  __HAL_RCC_GPIOC_CLK_ENABLE();
 80022a8:	4b78      	ldr	r3, [pc, #480]	; (800248c <main+0x1fc>)
  __HAL_RCC_GPIOD_CLK_ENABLE();
  __HAL_RCC_GPIOA_CLK_ENABLE();

  /*Configure GPIO pin Output Level */
  HAL_GPIO_WritePin(GPIOC, GPIO_PIN_3|LD4_Pin|LD3_Pin, GPIO_PIN_RESET);
 80022aa:	f44f 7142 	mov.w	r1, #776	; 0x308
  __HAL_RCC_GPIOC_CLK_ENABLE();
 80022ae:	699a      	ldr	r2, [r3, #24]
  HAL_GPIO_WritePin(GPIOC, GPIO_PIN_3|LD4_Pin|LD3_Pin, GPIO_PIN_RESET);
 80022b0:	4877      	ldr	r0, [pc, #476]	; (8002490 <main+0x200>)
  __HAL_RCC_GPIOC_CLK_ENABLE();
 80022b2:	f042 0210 	orr.w	r2, r2, #16
 80022b6:	619a      	str	r2, [r3, #24]
 80022b8:	699a      	ldr	r2, [r3, #24]
                          |GPIO_PIN_12|GPIO_PIN_15, GPIO_PIN_RESET);

  /*Configure GPIO pins : PC13 PC10 PC11 PC12 */
  GPIO_InitStruct.Pin = GPIO_PIN_13|GPIO_PIN_10|GPIO_PIN_11|GPIO_PIN_12;
  GPIO_InitStruct.Mode = GPIO_MODE_IT_RISING;
  GPIO_InitStruct.Pull = GPIO_PULLDOWN;
 80022ba:	2502      	movs	r5, #2
  __HAL_RCC_GPIOC_CLK_ENABLE();
 80022bc:	f002 0210 	and.w	r2, r2, #16
 80022c0:	9204      	str	r2, [sp, #16]
 80022c2:	9a04      	ldr	r2, [sp, #16]
  __HAL_RCC_GPIOD_CLK_ENABLE();
 80022c4:	699a      	ldr	r2, [r3, #24]
  HAL_GPIO_Init(GPIOC, &GPIO_InitStruct);

  /*Configure GPIO pins : PC3 LD4_Pin LD3_Pin */
  GPIO_InitStruct.Pin = GPIO_PIN_3|LD4_Pin|LD3_Pin;
  GPIO_InitStruct.Mode = GPIO_MODE_OUTPUT_PP;
  GPIO_InitStruct.Pull = GPIO_NOPULL;
 80022c6:	2400      	movs	r4, #0
  __HAL_RCC_GPIOD_CLK_ENABLE();
 80022c8:	f042 0220 	orr.w	r2, r2, #32
 80022cc:	619a      	str	r2, [r3, #24]
 80022ce:	699a      	ldr	r2, [r3, #24]
  GPIO_InitStruct.Mode = GPIO_MODE_OUTPUT_PP;
 80022d0:	2701      	movs	r7, #1
  __HAL_RCC_GPIOD_CLK_ENABLE();
 80022d2:	f002 0220 	and.w	r2, r2, #32
 80022d6:	9205      	str	r2, [sp, #20]
 80022d8:	9a05      	ldr	r2, [sp, #20]
  __HAL_RCC_GPIOA_CLK_ENABLE();
 80022da:	699a      	ldr	r2, [r3, #24]
  htim7.Instance = TIM7;
 80022dc:	4e6d      	ldr	r6, [pc, #436]	; (8002494 <main+0x204>)
  __HAL_RCC_GPIOA_CLK_ENABLE();
 80022de:	f042 0204 	orr.w	r2, r2, #4
 80022e2:	619a      	str	r2, [r3, #24]
 80022e4:	699b      	ldr	r3, [r3, #24]
  HAL_GPIO_WritePin(GPIOC, GPIO_PIN_3|LD4_Pin|LD3_Pin, GPIO_PIN_RESET);
 80022e6:	2200      	movs	r2, #0
  __HAL_RCC_GPIOA_CLK_ENABLE();
 80022e8:	f003 0304 	and.w	r3, r3, #4
 80022ec:	9306      	str	r3, [sp, #24]
 80022ee:	9b06      	ldr	r3, [sp, #24]
  HAL_GPIO_WritePin(GPIOC, GPIO_PIN_3|LD4_Pin|LD3_Pin, GPIO_PIN_RESET);
 80022f0:	f7ff f822 	bl	8001338 <HAL_GPIO_WritePin>
  HAL_GPIO_WritePin(GPIOA, GPIO_PIN_8|GPIO_PIN_9|GPIO_PIN_10|GPIO_PIN_11 
 80022f4:	2200      	movs	r2, #0
 80022f6:	f44f 411f 	mov.w	r1, #40704	; 0x9f00
 80022fa:	4867      	ldr	r0, [pc, #412]	; (8002498 <main+0x208>)
 80022fc:	f7ff f81c 	bl	8001338 <HAL_GPIO_WritePin>
  GPIO_InitStruct.Pin = GPIO_PIN_13|GPIO_PIN_10|GPIO_PIN_11|GPIO_PIN_12;
 8002300:	f44f 5370 	mov.w	r3, #15360	; 0x3c00
 8002304:	9309      	str	r3, [sp, #36]	; 0x24
  GPIO_InitStruct.Mode = GPIO_MODE_IT_RISING;
 8002306:	4b65      	ldr	r3, [pc, #404]	; (800249c <main+0x20c>)
  HAL_GPIO_Init(GPIOC, &GPIO_InitStruct);
 8002308:	a909      	add	r1, sp, #36	; 0x24
 800230a:	4861      	ldr	r0, [pc, #388]	; (8002490 <main+0x200>)
  GPIO_InitStruct.Mode = GPIO_MODE_IT_RISING;
 800230c:	930a      	str	r3, [sp, #40]	; 0x28
  GPIO_InitStruct.Pull = GPIO_PULLDOWN;
 800230e:	950b      	str	r5, [sp, #44]	; 0x2c
  HAL_GPIO_Init(GPIOC, &GPIO_InitStruct);
 8002310:	f7fe ff2a 	bl	8001168 <HAL_GPIO_Init>
  GPIO_InitStruct.Pin = GPIO_PIN_3|LD4_Pin|LD3_Pin;
 8002314:	f44f 7342 	mov.w	r3, #776	; 0x308
  GPIO_InitStruct.Speed = GPIO_SPEED_FREQ_LOW;
  HAL_GPIO_Init(GPIOC, &GPIO_InitStruct);
 8002318:	a909      	add	r1, sp, #36	; 0x24
 800231a:	485d      	ldr	r0, [pc, #372]	; (8002490 <main+0x200>)
  GPIO_InitStruct.Pin = GPIO_PIN_3|LD4_Pin|LD3_Pin;
 800231c:	9309      	str	r3, [sp, #36]	; 0x24
  GPIO_InitStruct.Pull = GPIO_NOPULL;
 800231e:	940b      	str	r4, [sp, #44]	; 0x2c
  GPIO_InitStruct.Speed = GPIO_SPEED_FREQ_LOW;
 8002320:	950c      	str	r5, [sp, #48]	; 0x30
  GPIO_InitStruct.Mode = GPIO_MODE_OUTPUT_PP;
 8002322:	970a      	str	r7, [sp, #40]	; 0x28
  HAL_GPIO_Init(GPIOC, &GPIO_InitStruct);
 8002324:	f7fe ff20 	bl	8001168 <HAL_GPIO_Init>

  /*Configure GPIO pins : PA8 PA9 PA10 PA11 
                           PA12 PA15 */
  GPIO_InitStruct.Pin = GPIO_PIN_8|GPIO_PIN_9|GPIO_PIN_10|GPIO_PIN_11 
 8002328:	f44f 431f 	mov.w	r3, #40704	; 0x9f00
                          |GPIO_PIN_12|GPIO_PIN_15;
  GPIO_InitStruct.Mode = GPIO_MODE_OUTPUT_PP;
  GPIO_InitStruct.Pull = GPIO_NOPULL;
  GPIO_InitStruct.Speed = GPIO_SPEED_FREQ_LOW;
  HAL_GPIO_Init(GPIOA, &GPIO_InitStruct);
 800232c:	a909      	add	r1, sp, #36	; 0x24
 800232e:	485a      	ldr	r0, [pc, #360]	; (8002498 <main+0x208>)
  GPIO_InitStruct.Pin = GPIO_PIN_8|GPIO_PIN_9|GPIO_PIN_10|GPIO_PIN_11 
 8002330:	9309      	str	r3, [sp, #36]	; 0x24
  GPIO_InitStruct.Pull = GPIO_NOPULL;
 8002332:	940b      	str	r4, [sp, #44]	; 0x2c
  GPIO_InitStruct.Speed = GPIO_SPEED_FREQ_LOW;
 8002334:	950c      	str	r5, [sp, #48]	; 0x30
  GPIO_InitStruct.Mode = GPIO_MODE_OUTPUT_PP;
 8002336:	970a      	str	r7, [sp, #40]	; 0x28
  HAL_GPIO_Init(GPIOA, &GPIO_InitStruct);
 8002338:	f7fe ff16 	bl	8001168 <HAL_GPIO_Init>

  /* EXTI interrupt init*/
  HAL_NVIC_SetPriority(EXTI15_10_IRQn, 0, 0);
 800233c:	4622      	mov	r2, r4
 800233e:	4621      	mov	r1, r4
 8002340:	2028      	movs	r0, #40	; 0x28
 8002342:	f7fe feb9 	bl	80010b8 <HAL_NVIC_SetPriority>
  HAL_NVIC_EnableIRQ(EXTI15_10_IRQn);
 8002346:	2028      	movs	r0, #40	; 0x28
  htim4.Instance = TIM4;
 8002348:	4d55      	ldr	r5, [pc, #340]	; (80024a0 <main+0x210>)
  HAL_NVIC_EnableIRQ(EXTI15_10_IRQn);
 800234a:	f7fe fee9 	bl	8001120 <HAL_NVIC_EnableIRQ>
  TIM_OC_InitTypeDef sConfigOC = {0};
 800234e:	221c      	movs	r2, #28
 8002350:	4621      	mov	r1, r4
 8002352:	a809      	add	r0, sp, #36	; 0x24
  TIM_MasterConfigTypeDef sMasterConfig = {0};
 8002354:	9407      	str	r4, [sp, #28]
 8002356:	9408      	str	r4, [sp, #32]
  TIM_OC_InitTypeDef sConfigOC = {0};
 8002358:	f000 fae6 	bl	8002928 <memset>
  htim4.Instance = TIM4;
 800235c:	4b51      	ldr	r3, [pc, #324]	; (80024a4 <main+0x214>)
  if (HAL_TIM_OC_Init(&htim4) != HAL_OK)
 800235e:	4628      	mov	r0, r5
  htim4.Init.Prescaler = 0;
 8002360:	e885 0018 	stmia.w	r5, {r3, r4}
  htim4.Init.CounterMode = TIM_COUNTERMODE_UP;
 8002364:	60ac      	str	r4, [r5, #8]
  htim4.Init.Period = 0;
 8002366:	60ec      	str	r4, [r5, #12]
  htim4.Init.ClockDivision = TIM_CLOCKDIVISION_DIV1;
 8002368:	612c      	str	r4, [r5, #16]
  htim4.Init.AutoReloadPreload = TIM_AUTORELOAD_PRELOAD_DISABLE;
 800236a:	61ac      	str	r4, [r5, #24]
  if (HAL_TIM_OC_Init(&htim4) != HAL_OK)
 800236c:	f7ff fc30 	bl	8001bd0 <HAL_TIM_OC_Init>
  if (HAL_TIMEx_MasterConfigSynchronization(&htim4, &sMasterConfig) != HAL_OK)
 8002370:	a907      	add	r1, sp, #28
 8002372:	4628      	mov	r0, r5
  sMasterConfig.MasterOutputTrigger = TIM_TRGO_RESET;
 8002374:	9407      	str	r4, [sp, #28]
  sMasterConfig.MasterSlaveMode = TIM_MASTERSLAVEMODE_DISABLE;
 8002376:	9408      	str	r4, [sp, #32]
  if (HAL_TIMEx_MasterConfigSynchronization(&htim4, &sMasterConfig) != HAL_OK)
 8002378:	f7ff fcac 	bl	8001cd4 <HAL_TIMEx_MasterConfigSynchronization>
  if (HAL_TIM_OC_ConfigChannel(&htim4, &sConfigOC, TIM_CHANNEL_1) != HAL_OK)
 800237c:	4622      	mov	r2, r4
 800237e:	a909      	add	r1, sp, #36	; 0x24
 8002380:	4628      	mov	r0, r5
  sConfigOC.OCMode = TIM_OCMODE_TIMING;
 8002382:	9409      	str	r4, [sp, #36]	; 0x24
  sConfigOC.Pulse = 0;
 8002384:	940a      	str	r4, [sp, #40]	; 0x28
  sConfigOC.OCPolarity = TIM_OCPOLARITY_HIGH;
 8002386:	940b      	str	r4, [sp, #44]	; 0x2c
  sConfigOC.OCFastMode = TIM_OCFAST_DISABLE;
 8002388:	940d      	str	r4, [sp, #52]	; 0x34
  if (HAL_TIM_OC_ConfigChannel(&htim4, &sConfigOC, TIM_CHANNEL_1) != HAL_OK)
 800238a:	f7ff fc75 	bl	8001c78 <HAL_TIM_OC_ConfigChannel>
  int period = GetDesiredPeriodandPrescaler(10);
 800238e:	4846      	ldr	r0, [pc, #280]	; (80024a8 <main+0x218>)
  TIM_MasterConfigTypeDef sMasterConfig = {0};
 8002390:	9409      	str	r4, [sp, #36]	; 0x24
 8002392:	940a      	str	r4, [sp, #40]	; 0x28
  int period = GetDesiredPeriodandPrescaler(10);
 8002394:	f7ff ff38 	bl	8002208 <GetDesiredPeriodandPrescaler>
  htim7.Instance = TIM7;
 8002398:	4b44      	ldr	r3, [pc, #272]	; (80024ac <main+0x21c>)
  htim7.Init.Prescaler = prescaler;
 800239a:	6070      	str	r0, [r6, #4]
  htim7.Init.Period = period;
 800239c:	60f0      	str	r0, [r6, #12]
  if (HAL_TIM_Base_Init(&htim7) != HAL_OK)
 800239e:	4630      	mov	r0, r6
  htim7.Instance = TIM7;
 80023a0:	6033      	str	r3, [r6, #0]
  htim7.Init.CounterMode = TIM_COUNTERMODE_UP;
 80023a2:	60b4      	str	r4, [r6, #8]
  htim7.Init.AutoReloadPreload = TIM_AUTORELOAD_PRELOAD_DISABLE;
 80023a4:	61b4      	str	r4, [r6, #24]
  if (HAL_TIM_Base_Init(&htim7) != HAL_OK)
 80023a6:	f7ff fbf9 	bl	8001b9c <HAL_TIM_Base_Init>
  if (HAL_TIMEx_MasterConfigSynchronization(&htim7, &sMasterConfig) != HAL_OK)
 80023aa:	a909      	add	r1, sp, #36	; 0x24
 80023ac:	4630      	mov	r0, r6
  sMasterConfig.MasterOutputTrigger = TIM_TRGO_RESET;
 80023ae:	9409      	str	r4, [sp, #36]	; 0x24
  sMasterConfig.MasterSlaveMode = TIM_MASTERSLAVEMODE_DISABLE;
 80023b0:	940a      	str	r4, [sp, #40]	; 0x28
  if (HAL_TIMEx_MasterConfigSynchronization(&htim7, &sMasterConfig) != HAL_OK)
 80023b2:	f7ff fc8f 	bl	8001cd4 <HAL_TIMEx_MasterConfigSynchronization>
  HAL_TIM_Base_Start_IT(&htim7);
 80023b6:	4630      	mov	r0, r6
 80023b8:	f7ff fad2 	bl	8001960 <HAL_TIM_Base_Start_IT>
  HAL_TIM_Base_Start_IT(&htim4);
 80023bc:	4628      	mov	r0, r5
 80023be:	f7ff facf 	bl	8001960 <HAL_TIM_Base_Start_IT>
  HAL_GPIO_WritePin(GPIOC,GPIO_PIN_3,1);//set high to keep current going through NO(Normally Open)
 80023c2:	463a      	mov	r2, r7
 80023c4:	2108      	movs	r1, #8
 80023c6:	4832      	ldr	r0, [pc, #200]	; (8002490 <main+0x200>)
 80023c8:	f7fe ffb6 	bl	8001338 <HAL_GPIO_WritePin>
  LiquidCrystal(GPIOA, GPIO_PIN_15, 0, GPIO_PIN_12, GPIO_PIN_11, GPIO_PIN_10, GPIO_PIN_9, GPIO_PIN_8);
 80023cc:	f44f 6000 	mov.w	r0, #2048	; 0x800
 80023d0:	f44f 6180 	mov.w	r1, #1024	; 0x400
 80023d4:	f44f 7200 	mov.w	r2, #512	; 0x200
 80023d8:	f44f 7380 	mov.w	r3, #256	; 0x100
 80023dc:	e88d 000f 	stmia.w	sp, {r0, r1, r2, r3}
 80023e0:	4622      	mov	r2, r4
  displayChange = true;
 80023e2:	4c33      	ldr	r4, [pc, #204]	; (80024b0 <main+0x220>)
  LiquidCrystal(GPIOA, GPIO_PIN_15, 0, GPIO_PIN_12, GPIO_PIN_11, GPIO_PIN_10, GPIO_PIN_9, GPIO_PIN_8);
 80023e4:	f44f 5380 	mov.w	r3, #4096	; 0x1000
 80023e8:	f44f 4100 	mov.w	r1, #32768	; 0x8000
 80023ec:	482a      	ldr	r0, [pc, #168]	; (8002498 <main+0x208>)
		int size1 = sprintf(str, "tic%s %-2d %-3u", currectTimerState == 0? "Off" : "On", currentTimer, timersTic[currectTimerState][currentTimer]);
 80023ee:	f8df 80dc 	ldr.w	r8, [pc, #220]	; 80024cc <main+0x23c>
 80023f2:	f8df 90dc 	ldr.w	r9, [pc, #220]	; 80024d0 <main+0x240>
  LiquidCrystal(GPIOA, GPIO_PIN_15, 0, GPIO_PIN_12, GPIO_PIN_11, GPIO_PIN_10, GPIO_PIN_9, GPIO_PIN_8);
 80023f6:	f7ff fe9d 	bl	8002134 <LiquidCrystal>
  displayChange = true;
 80023fa:	7027      	strb	r7, [r4, #0]
	  if(displayChange)
 80023fc:	7823      	ldrb	r3, [r4, #0]
 80023fe:	2b00      	cmp	r3, #0
 8002400:	d041      	beq.n	8002486 <main+0x1f6>
		displayChange = false;
 8002402:	2700      	movs	r7, #0
		int size1 = sprintf(str, "tic%s %-2d %-3u", currectTimerState == 0? "Off" : "On", currentTimer, timersTic[currectTimerState][currentTimer]);
 8002404:	f8df a0cc 	ldr.w	sl, [pc, #204]	; 80024d4 <main+0x244>
		setCursor(0, 0);
 8002408:	4639      	mov	r1, r7
 800240a:	4638      	mov	r0, r7
		displayChange = false;
 800240c:	7027      	strb	r7, [r4, #0]
		setCursor(0, 0);
 800240e:	f7ff fd65 	bl	8001edc <setCursor>
		int size1 = sprintf(str, "tic%s %-2d %-3u", currectTimerState == 0? "Off" : "On", currentTimer, timersTic[currectTimerState][currentTimer]);
 8002412:	f898 2000 	ldrb.w	r2, [r8]
 8002416:	4927      	ldr	r1, [pc, #156]	; (80024b4 <main+0x224>)
 8002418:	f89a 3000 	ldrb.w	r3, [sl]
 800241c:	eb01 0182 	add.w	r1, r1, r2, lsl #2
 8002420:	5cc9      	ldrb	r1, [r1, r3]
 8002422:	4e25      	ldr	r6, [pc, #148]	; (80024b8 <main+0x228>)
 8002424:	9100      	str	r1, [sp, #0]
 8002426:	42ba      	cmp	r2, r7
 8002428:	bf0c      	ite	eq
 800242a:	464a      	moveq	r2, r9
 800242c:	4632      	movne	r2, r6
 800242e:	4923      	ldr	r1, [pc, #140]	; (80024bc <main+0x22c>)
 8002430:	a809      	add	r0, sp, #36	; 0x24
 8002432:	f000 fa81 	bl	8002938 <siprintf>
 8002436:	4605      	mov	r5, r0
		print(str);
 8002438:	a809      	add	r0, sp, #36	; 0x24
 800243a:	f7ff feb5 	bl	80021a8 <print>
		setCursor(0, 1);
 800243e:	2101      	movs	r1, #1
 8002440:	4638      	mov	r0, r7
 8002442:	f7ff fd4b 	bl	8001edc <setCursor>
		int size2 = sprintf(str, "type%s %-2d %s", currectTimerState == 0? "Off" : "On", currentTimer, GetTimeType(timersType[currectTimerState][currentTimer]));
 8002446:	f898 3000 	ldrb.w	r3, [r8]
 800244a:	4a1d      	ldr	r2, [pc, #116]	; (80024c0 <main+0x230>)
 800244c:	42bb      	cmp	r3, r7
 800244e:	bf08      	it	eq
 8002450:	464e      	moveq	r6, r9
 8002452:	f89a 7000 	ldrb.w	r7, [sl]
 8002456:	eb02 0283 	add.w	r2, r2, r3, lsl #2
 800245a:	5dd0      	ldrb	r0, [r2, r7]
 800245c:	f7ff feb8 	bl	80021d0 <GetTimeType>
 8002460:	463b      	mov	r3, r7
 8002462:	4632      	mov	r2, r6
 8002464:	4917      	ldr	r1, [pc, #92]	; (80024c4 <main+0x234>)
 8002466:	9000      	str	r0, [sp, #0]
 8002468:	a809      	add	r0, sp, #36	; 0x24
 800246a:	f000 fa65 	bl	8002938 <siprintf>
 800246e:	4606      	mov	r6, r0
		print(str);
 8002470:	a809      	add	r0, sp, #36	; 0x24
 8002472:	f7ff fe99 	bl	80021a8 <print>
		setCursor((timerState? size2 : size1) - 3, timerState);
 8002476:	4b14      	ldr	r3, [pc, #80]	; (80024c8 <main+0x238>)
 8002478:	7819      	ldrb	r1, [r3, #0]
 800247a:	b129      	cbz	r1, 8002488 <main+0x1f8>
 800247c:	1ef0      	subs	r0, r6, #3
 800247e:	f7ff fd2d 	bl	8001edc <setCursor>
		blink();
 8002482:	f7ff fe85 	bl	8002190 <blink>
	  if(displayChange)
 8002486:	e7b9      	b.n	80023fc <main+0x16c>
		setCursor((timerState? size2 : size1) - 3, timerState);
 8002488:	1ee8      	subs	r0, r5, #3
 800248a:	e7f8      	b.n	800247e <main+0x1ee>
 800248c:	40021000 	.word	0x40021000
 8002490:	40011000 	.word	0x40011000
 8002494:	2000012c 	.word	0x2000012c
 8002498:	40010800 	.word	0x40010800
 800249c:	10110000 	.word	0x10110000
 80024a0:	200000e8 	.word	0x200000e8
 80024a4:	40000800 	.word	0x40000800
 80024a8:	41200000 	.word	0x41200000
 80024ac:	40001400 	.word	0x40001400
 80024b0:	20000128 	.word	0x20000128
 80024b4:	2000000a 	.word	0x2000000a
 80024b8:	080033f3 	.word	0x080033f3
 80024bc:	080033f6 	.word	0x080033f6
 80024c0:	20000012 	.word	0x20000012
 80024c4:	08003406 	.word	0x08003406
 80024c8:	2000012a 	.word	0x2000012a
 80024cc:	20000129 	.word	0x20000129
 80024d0:	080033ef 	.word	0x080033ef
 80024d4:	200000e4 	.word	0x200000e4

080024d8 <HAL_MspInit>:
{
  /* USER CODE BEGIN MspInit 0 */

  /* USER CODE END MspInit 0 */

  __HAL_RCC_AFIO_CLK_ENABLE();
 80024d8:	4b0e      	ldr	r3, [pc, #56]	; (8002514 <HAL_MspInit+0x3c>)
{
 80024da:	b082      	sub	sp, #8
  __HAL_RCC_AFIO_CLK_ENABLE();
 80024dc:	699a      	ldr	r2, [r3, #24]
 80024de:	f042 0201 	orr.w	r2, r2, #1
 80024e2:	619a      	str	r2, [r3, #24]
 80024e4:	699a      	ldr	r2, [r3, #24]
 80024e6:	f002 0201 	and.w	r2, r2, #1
 80024ea:	9200      	str	r2, [sp, #0]
 80024ec:	9a00      	ldr	r2, [sp, #0]
  __HAL_RCC_PWR_CLK_ENABLE();
 80024ee:	69da      	ldr	r2, [r3, #28]
 80024f0:	f042 5280 	orr.w	r2, r2, #268435456	; 0x10000000
 80024f4:	61da      	str	r2, [r3, #28]
 80024f6:	69db      	ldr	r3, [r3, #28]

  /* System interrupt init*/

  /** NOJTAG: JTAG-DP Disabled and SW-DP Enabled 
  */
  __HAL_AFIO_REMAP_SWJ_NOJTAG();
 80024f8:	4a07      	ldr	r2, [pc, #28]	; (8002518 <HAL_MspInit+0x40>)
  __HAL_RCC_PWR_CLK_ENABLE();
 80024fa:	f003 5380 	and.w	r3, r3, #268435456	; 0x10000000
 80024fe:	9301      	str	r3, [sp, #4]
 8002500:	9b01      	ldr	r3, [sp, #4]
  __HAL_AFIO_REMAP_SWJ_NOJTAG();
 8002502:	6853      	ldr	r3, [r2, #4]
 8002504:	f023 63e0 	bic.w	r3, r3, #117440512	; 0x7000000
 8002508:	f043 7300 	orr.w	r3, r3, #33554432	; 0x2000000
 800250c:	6053      	str	r3, [r2, #4]

  /* USER CODE BEGIN MspInit 1 */

  /* USER CODE END MspInit 1 */
}
 800250e:	b002      	add	sp, #8
 8002510:	4770      	bx	lr
 8002512:	bf00      	nop
 8002514:	40021000 	.word	0x40021000
 8002518:	40010000 	.word	0x40010000

0800251c <HAL_TIM_OC_MspInit>:
* This function configures the hardware resources used in this example
* @param htim_oc: TIM_OC handle pointer
* @retval None
*/
void HAL_TIM_OC_MspInit(TIM_HandleTypeDef* htim_oc)
{
 800251c:	b507      	push	{r0, r1, r2, lr}
  if(htim_oc->Instance==TIM4)
 800251e:	4b0d      	ldr	r3, [pc, #52]	; (8002554 <HAL_TIM_OC_MspInit+0x38>)
 8002520:	6802      	ldr	r2, [r0, #0]
 8002522:	429a      	cmp	r2, r3
 8002524:	d112      	bne.n	800254c <HAL_TIM_OC_MspInit+0x30>
  {
  /* USER CODE BEGIN TIM4_MspInit 0 */

  /* USER CODE END TIM4_MspInit 0 */
    /* Peripheral clock enable */
    __HAL_RCC_TIM4_CLK_ENABLE();
 8002526:	f503 3302 	add.w	r3, r3, #133120	; 0x20800
 800252a:	69da      	ldr	r2, [r3, #28]
    /* TIM4 interrupt Init */
    HAL_NVIC_SetPriority(TIM4_IRQn, 0, 0);
 800252c:	201e      	movs	r0, #30
    __HAL_RCC_TIM4_CLK_ENABLE();
 800252e:	f042 0204 	orr.w	r2, r2, #4
 8002532:	61da      	str	r2, [r3, #28]
    HAL_NVIC_SetPriority(TIM4_IRQn, 0, 0);
 8002534:	2200      	movs	r2, #0
    __HAL_RCC_TIM4_CLK_ENABLE();
 8002536:	69db      	ldr	r3, [r3, #28]
    HAL_NVIC_SetPriority(TIM4_IRQn, 0, 0);
 8002538:	4611      	mov	r1, r2
    __HAL_RCC_TIM4_CLK_ENABLE();
 800253a:	f003 0304 	and.w	r3, r3, #4
 800253e:	9301      	str	r3, [sp, #4]
 8002540:	9b01      	ldr	r3, [sp, #4]
    HAL_NVIC_SetPriority(TIM4_IRQn, 0, 0);
 8002542:	f7fe fdb9 	bl	80010b8 <HAL_NVIC_SetPriority>
    HAL_NVIC_EnableIRQ(TIM4_IRQn);
 8002546:	201e      	movs	r0, #30
 8002548:	f7fe fdea 	bl	8001120 <HAL_NVIC_EnableIRQ>
  /* USER CODE BEGIN TIM4_MspInit 1 */

  /* USER CODE END TIM4_MspInit 1 */
  }

}
 800254c:	b003      	add	sp, #12
 800254e:	f85d fb04 	ldr.w	pc, [sp], #4
 8002552:	bf00      	nop
 8002554:	40000800 	.word	0x40000800

08002558 <HAL_TIM_Base_MspInit>:
* This function configures the hardware resources used in this example
* @param htim_base: TIM_Base handle pointer
* @retval None
*/
void HAL_TIM_Base_MspInit(TIM_HandleTypeDef* htim_base)
{
 8002558:	b507      	push	{r0, r1, r2, lr}
  if(htim_base->Instance==TIM7)
 800255a:	4b0d      	ldr	r3, [pc, #52]	; (8002590 <HAL_TIM_Base_MspInit+0x38>)
 800255c:	6802      	ldr	r2, [r0, #0]
 800255e:	429a      	cmp	r2, r3
 8002560:	d112      	bne.n	8002588 <HAL_TIM_Base_MspInit+0x30>
  {
  /* USER CODE BEGIN TIM7_MspInit 0 */

  /* USER CODE END TIM7_MspInit 0 */
    /* Peripheral clock enable */
    __HAL_RCC_TIM7_CLK_ENABLE();
 8002562:	f503 33fe 	add.w	r3, r3, #130048	; 0x1fc00
 8002566:	69da      	ldr	r2, [r3, #28]
    /* TIM7 interrupt Init */
    HAL_NVIC_SetPriority(TIM7_IRQn, 0, 0);
 8002568:	2037      	movs	r0, #55	; 0x37
    __HAL_RCC_TIM7_CLK_ENABLE();
 800256a:	f042 0220 	orr.w	r2, r2, #32
 800256e:	61da      	str	r2, [r3, #28]
    HAL_NVIC_SetPriority(TIM7_IRQn, 0, 0);
 8002570:	2200      	movs	r2, #0
    __HAL_RCC_TIM7_CLK_ENABLE();
 8002572:	69db      	ldr	r3, [r3, #28]
    HAL_NVIC_SetPriority(TIM7_IRQn, 0, 0);
 8002574:	4611      	mov	r1, r2
    __HAL_RCC_TIM7_CLK_ENABLE();
 8002576:	f003 0320 	and.w	r3, r3, #32
 800257a:	9301      	str	r3, [sp, #4]
 800257c:	9b01      	ldr	r3, [sp, #4]
    HAL_NVIC_SetPriority(TIM7_IRQn, 0, 0);
 800257e:	f7fe fd9b 	bl	80010b8 <HAL_NVIC_SetPriority>
    HAL_NVIC_EnableIRQ(TIM7_IRQn);
 8002582:	2037      	movs	r0, #55	; 0x37
 8002584:	f7fe fdcc 	bl	8001120 <HAL_NVIC_EnableIRQ>
  /* USER CODE BEGIN TIM7_MspInit 1 */

  /* USER CODE END TIM7_MspInit 1 */
  }

}
 8002588:	b003      	add	sp, #12
 800258a:	f85d fb04 	ldr.w	pc, [sp], #4
 800258e:	bf00      	nop
 8002590:	40001400 	.word	0x40001400

08002594 <NMI_Handler>:
 8002594:	4770      	bx	lr

08002596 <HardFault_Handler>:

/**
  * @brief This function handles Hard fault interrupt.
  */
void HardFault_Handler(void)
{
 8002596:	e7fe      	b.n	8002596 <HardFault_Handler>

08002598 <MemManage_Handler>:

/**
  * @brief This function handles Memory management fault.
  */
void MemManage_Handler(void)
{
 8002598:	e7fe      	b.n	8002598 <MemManage_Handler>

0800259a <BusFault_Handler>:

/**
  * @brief This function handles Prefetch fault, memory access fault.
  */
void BusFault_Handler(void)
{
 800259a:	e7fe      	b.n	800259a <BusFault_Handler>

0800259c <UsageFault_Handler>:

/**
  * @brief This function handles Undefined instruction or illegal state.
  */
void UsageFault_Handler(void)
{
 800259c:	e7fe      	b.n	800259c <UsageFault_Handler>

0800259e <SVC_Handler>:
 800259e:	4770      	bx	lr

080025a0 <DebugMon_Handler>:
 80025a0:	4770      	bx	lr

080025a2 <PendSV_Handler>:

/**
  * @brief This function handles Pendable request for system service.
  */
void PendSV_Handler(void)
{
 80025a2:	4770      	bx	lr

080025a4 <SysTick_Handler>:
void SysTick_Handler(void)
{
  /* USER CODE BEGIN SysTick_IRQn 0 */

  /* USER CODE END SysTick_IRQn 0 */
  HAL_IncTick();
 80025a4:	f7fe bd52 	b.w	800104c <HAL_IncTick>

080025a8 <TIM4_IRQHandler>:
  * @brief This function handles TIM4 global interrupt.
  */
void TIM4_IRQHandler(void)
{
  /* USER CODE BEGIN TIM4_IRQn 0 */
	debouncer = 0;
 80025a8:	2200      	movs	r2, #0
{
 80025aa:	b510      	push	{r4, lr}
  /* USER CODE END TIM4_IRQn 0 */
  HAL_TIM_IRQHandler(&htim4);
 80025ac:	4c05      	ldr	r4, [pc, #20]	; (80025c4 <TIM4_IRQHandler+0x1c>)
	debouncer = 0;
 80025ae:	4b06      	ldr	r3, [pc, #24]	; (80025c8 <TIM4_IRQHandler+0x20>)
  HAL_TIM_IRQHandler(&htim4);
 80025b0:	4620      	mov	r0, r4
	debouncer = 0;
 80025b2:	601a      	str	r2, [r3, #0]
  HAL_TIM_IRQHandler(&htim4);
 80025b4:	f7ff f9fe 	bl	80019b4 <HAL_TIM_IRQHandler>
  /* USER CODE BEGIN TIM4_IRQn 1 */
	HAL_TIM_Base_Stop_IT(&htim4);
 80025b8:	4620      	mov	r0, r4

  /* USER CODE END TIM4_IRQn 1 */
}
 80025ba:	e8bd 4010 	ldmia.w	sp!, {r4, lr}
	HAL_TIM_Base_Stop_IT(&htim4);
 80025be:	f7ff b9df 	b.w	8001980 <HAL_TIM_Base_Stop_IT>
 80025c2:	bf00      	nop
 80025c4:	200000e8 	.word	0x200000e8
 80025c8:	200000e0 	.word	0x200000e0

080025cc <EXTI15_10_IRQHandler>:

/**
  * @brief This function handles EXTI line[15:10] interrupts.
  */
void EXTI15_10_IRQHandler(void)
{
 80025cc:	b5f8      	push	{r3, r4, r5, r6, r7, lr}
  /* USER CODE BEGIN EXTI15_10_IRQn 0 */
	if(debouncer == 0)
 80025ce:	4b5b      	ldr	r3, [pc, #364]	; (800273c <EXTI15_10_IRQHandler+0x170>)
 80025d0:	681f      	ldr	r7, [r3, #0]
 80025d2:	2f00      	cmp	r7, #0
 80025d4:	f040 8098 	bne.w	8002708 <EXTI15_10_IRQHandler+0x13c>
	{
		debouncer = 1;
 80025d8:	2201      	movs	r2, #1

		int read_10 = HAL_GPIO_ReadPin(GPIOC, GPIO_PIN_10);
 80025da:	f44f 6180 	mov.w	r1, #1024	; 0x400
 80025de:	4858      	ldr	r0, [pc, #352]	; (8002740 <EXTI15_10_IRQHandler+0x174>)
		debouncer = 1;
 80025e0:	601a      	str	r2, [r3, #0]
		int read_10 = HAL_GPIO_ReadPin(GPIOC, GPIO_PIN_10);
 80025e2:	f7fe fea3 	bl	800132c <HAL_GPIO_ReadPin>
		int read_11 = HAL_GPIO_ReadPin(GPIOC, GPIO_PIN_11);
 80025e6:	f44f 6100 	mov.w	r1, #2048	; 0x800
		int read_10 = HAL_GPIO_ReadPin(GPIOC, GPIO_PIN_10);
 80025ea:	4606      	mov	r6, r0
		int read_11 = HAL_GPIO_ReadPin(GPIOC, GPIO_PIN_11);
 80025ec:	4854      	ldr	r0, [pc, #336]	; (8002740 <EXTI15_10_IRQHandler+0x174>)
 80025ee:	f7fe fe9d 	bl	800132c <HAL_GPIO_ReadPin>
		int read_12 = HAL_GPIO_ReadPin(GPIOC, GPIO_PIN_12);
 80025f2:	f44f 5180 	mov.w	r1, #4096	; 0x1000
		int read_11 = HAL_GPIO_ReadPin(GPIOC, GPIO_PIN_11);
 80025f6:	4604      	mov	r4, r0
		int read_12 = HAL_GPIO_ReadPin(GPIOC, GPIO_PIN_12);
 80025f8:	4851      	ldr	r0, [pc, #324]	; (8002740 <EXTI15_10_IRQHandler+0x174>)
 80025fa:	f7fe fe97 	bl	800132c <HAL_GPIO_ReadPin>
		int read_15 = HAL_GPIO_ReadPin(GPIOC, GPIO_PIN_13);
 80025fe:	f44f 5100 	mov.w	r1, #8192	; 0x2000
		int read_12 = HAL_GPIO_ReadPin(GPIOC, GPIO_PIN_12);
 8002602:	4605      	mov	r5, r0
		int read_15 = HAL_GPIO_ReadPin(GPIOC, GPIO_PIN_13);
 8002604:	484e      	ldr	r0, [pc, #312]	; (8002740 <EXTI15_10_IRQHandler+0x174>)
 8002606:	f7fe fe91 	bl	800132c <HAL_GPIO_ReadPin>

		if(read_10)
 800260a:	b136      	cbz	r6, 800261a <EXTI15_10_IRQHandler+0x4e>
		{
			timerState++;
 800260c:	4a4d      	ldr	r2, [pc, #308]	; (8002744 <EXTI15_10_IRQHandler+0x178>)
 800260e:	7813      	ldrb	r3, [r2, #0]
 8002610:	3301      	adds	r3, #1
 8002612:	b2db      	uxtb	r3, r3
			if(timerState > type)
 8002614:	2b01      	cmp	r3, #1
 8002616:	d828      	bhi.n	800266a <EXTI15_10_IRQHandler+0x9e>
			timerState++;
 8002618:	7013      	strb	r3, [r2, #0]
						currentTimer = 0;
					}
				}
			}
		}
		if(read_11)
 800261a:	2c00      	cmp	r4, #0
 800261c:	d039      	beq.n	8002692 <EXTI15_10_IRQHandler+0xc6>
			{
				timerState--;
 800261e:	4a49      	ldr	r2, [pc, #292]	; (8002744 <EXTI15_10_IRQHandler+0x178>)
 8002620:	7813      	ldrb	r3, [r2, #0]
 8002622:	3b01      	subs	r3, #1
 8002624:	b2db      	uxtb	r3, r3
				if(timerState == 255)
 8002626:	2bff      	cmp	r3, #255	; 0xff
				timerState--;
 8002628:	7013      	strb	r3, [r2, #0]
				if(timerState == 255)
 800262a:	d132      	bne.n	8002692 <EXTI15_10_IRQHandler+0xc6>
				{
					timerState = 1;
 800262c:	2101      	movs	r1, #1
 800262e:	4b45      	ldr	r3, [pc, #276]	; (8002744 <EXTI15_10_IRQHandler+0x178>)
					currectTimerState--;
 8002630:	4a45      	ldr	r2, [pc, #276]	; (8002748 <EXTI15_10_IRQHandler+0x17c>)
					timerState = 1;
 8002632:	7019      	strb	r1, [r3, #0]
					currectTimerState--;
 8002634:	7813      	ldrb	r3, [r2, #0]
 8002636:	3b01      	subs	r3, #1
 8002638:	b2db      	uxtb	r3, r3
					if(currectTimerState == 255)
 800263a:	2bff      	cmp	r3, #255	; 0xff
 800263c:	d10a      	bne.n	8002654 <EXTI15_10_IRQHandler+0x88>
					{
						currectTimerState = 1;
 800263e:	7011      	strb	r1, [r2, #0]
						currentTimer--;
 8002640:	4a42      	ldr	r2, [pc, #264]	; (800274c <EXTI15_10_IRQHandler+0x180>)
 8002642:	7813      	ldrb	r3, [r2, #0]
 8002644:	3b01      	subs	r3, #1
 8002646:	b2db      	uxtb	r3, r3
						if(currentTimer == 255)
 8002648:	2bff      	cmp	r3, #255	; 0xff
						currentTimer--;
 800264a:	7013      	strb	r3, [r2, #0]
						if(currentTimer == 255)
 800264c:	d103      	bne.n	8002656 <EXTI15_10_IRQHandler+0x8a>
						{
							currentTimer = timerCount - 1;
 800264e:	4b40      	ldr	r3, [pc, #256]	; (8002750 <EXTI15_10_IRQHandler+0x184>)
 8002650:	781b      	ldrb	r3, [r3, #0]
 8002652:	3b01      	subs	r3, #1
					currectTimerState--;
 8002654:	7013      	strb	r3, [r2, #0]
						}
					}
				}
			}
		if(read_12)
 8002656:	2d00      	cmp	r5, #0
 8002658:	d13b      	bne.n	80026d2 <EXTI15_10_IRQHandler+0x106>
			{
				timersType[currectTimerState][currentTimer]++;
			}
		}

		if(read_15)
 800265a:	2800      	cmp	r0, #0
 800265c:	d04c      	beq.n	80026f8 <EXTI15_10_IRQHandler+0x12c>
		{
			if(timerState == tic)
 800265e:	4b39      	ldr	r3, [pc, #228]	; (8002744 <EXTI15_10_IRQHandler+0x178>)
 8002660:	781b      	ldrb	r3, [r3, #0]
 8002662:	b333      	cbz	r3, 80026b2 <EXTI15_10_IRQHandler+0xe6>
			{
				timersTic[currectTimerState][currentTimer]--;
			}else if(timerState == type)
 8002664:	2b01      	cmp	r3, #1
 8002666:	d12e      	bne.n	80026c6 <EXTI15_10_IRQHandler+0xfa>
 8002668:	e03e      	b.n	80026e8 <EXTI15_10_IRQHandler+0x11c>
				timerState = tic;
 800266a:	7017      	strb	r7, [r2, #0]
				currectTimerState++;
 800266c:	4a36      	ldr	r2, [pc, #216]	; (8002748 <EXTI15_10_IRQHandler+0x17c>)
 800266e:	7813      	ldrb	r3, [r2, #0]
 8002670:	3301      	adds	r3, #1
 8002672:	b2db      	uxtb	r3, r3
				if(currectTimerState > 1)
 8002674:	2b01      	cmp	r3, #1
 8002676:	d95c      	bls.n	8002732 <EXTI15_10_IRQHandler+0x166>
					currectTimerState = 0;
 8002678:	7017      	strb	r7, [r2, #0]
					currentTimer++;
 800267a:	4a34      	ldr	r2, [pc, #208]	; (800274c <EXTI15_10_IRQHandler+0x180>)
					if(currentTimer >= timerCount)
 800267c:	4934      	ldr	r1, [pc, #208]	; (8002750 <EXTI15_10_IRQHandler+0x184>)
					currentTimer++;
 800267e:	7813      	ldrb	r3, [r2, #0]
					if(currentTimer >= timerCount)
 8002680:	7809      	ldrb	r1, [r1, #0]
					currentTimer++;
 8002682:	3301      	adds	r3, #1
 8002684:	b2db      	uxtb	r3, r3
					if(currentTimer >= timerCount)
 8002686:	4299      	cmp	r1, r3
					currentTimer++;
 8002688:	7013      	strb	r3, [r2, #0]
					if(currentTimer >= timerCount)
 800268a:	d800      	bhi.n	800268e <EXTI15_10_IRQHandler+0xc2>
						currentTimer = 0;
 800268c:	7017      	strb	r7, [r2, #0]
		if(read_11)
 800268e:	2c00      	cmp	r4, #0
 8002690:	d1cc      	bne.n	800262c <EXTI15_10_IRQHandler+0x60>
		if(read_12)
 8002692:	2d00      	cmp	r5, #0
 8002694:	d0e1      	beq.n	800265a <EXTI15_10_IRQHandler+0x8e>
			if(timerState == tic)
 8002696:	4b2b      	ldr	r3, [pc, #172]	; (8002744 <EXTI15_10_IRQHandler+0x178>)
 8002698:	781b      	ldrb	r3, [r3, #0]
 800269a:	b9c3      	cbnz	r3, 80026ce <EXTI15_10_IRQHandler+0x102>
				timersTic[currectTimerState][currentTimer]++;
 800269c:	4b2a      	ldr	r3, [pc, #168]	; (8002748 <EXTI15_10_IRQHandler+0x17c>)
 800269e:	781a      	ldrb	r2, [r3, #0]
 80026a0:	4b2a      	ldr	r3, [pc, #168]	; (800274c <EXTI15_10_IRQHandler+0x180>)
 80026a2:	7819      	ldrb	r1, [r3, #0]
 80026a4:	4b2b      	ldr	r3, [pc, #172]	; (8002754 <EXTI15_10_IRQHandler+0x188>)
 80026a6:	eb03 0382 	add.w	r3, r3, r2, lsl #2
 80026aa:	5c5a      	ldrb	r2, [r3, r1]
 80026ac:	3201      	adds	r2, #1
 80026ae:	545a      	strb	r2, [r3, r1]
		if(read_15)
 80026b0:	b148      	cbz	r0, 80026c6 <EXTI15_10_IRQHandler+0xfa>
				timersTic[currectTimerState][currentTimer]--;
 80026b2:	4b25      	ldr	r3, [pc, #148]	; (8002748 <EXTI15_10_IRQHandler+0x17c>)
 80026b4:	781a      	ldrb	r2, [r3, #0]
 80026b6:	4b25      	ldr	r3, [pc, #148]	; (800274c <EXTI15_10_IRQHandler+0x180>)
 80026b8:	7819      	ldrb	r1, [r3, #0]
 80026ba:	4b26      	ldr	r3, [pc, #152]	; (8002754 <EXTI15_10_IRQHandler+0x188>)
			{
				timersType[currectTimerState][currentTimer]--;
 80026bc:	eb03 0382 	add.w	r3, r3, r2, lsl #2
 80026c0:	5c5a      	ldrb	r2, [r3, r1]
 80026c2:	3a01      	subs	r2, #1
 80026c4:	545a      	strb	r2, [r3, r1]
			}
		}

		if(read_15 || read_12 || read_11 || read_10)
		{
			displayChange = true;
 80026c6:	2201      	movs	r2, #1
 80026c8:	4b23      	ldr	r3, [pc, #140]	; (8002758 <EXTI15_10_IRQHandler+0x18c>)
 80026ca:	701a      	strb	r2, [r3, #0]
 80026cc:	e018      	b.n	8002700 <EXTI15_10_IRQHandler+0x134>
			}else if(timerState == type)
 80026ce:	2b01      	cmp	r3, #1
 80026d0:	d131      	bne.n	8002736 <EXTI15_10_IRQHandler+0x16a>
				timersType[currectTimerState][currentTimer]++;
 80026d2:	4b1d      	ldr	r3, [pc, #116]	; (8002748 <EXTI15_10_IRQHandler+0x17c>)
 80026d4:	781a      	ldrb	r2, [r3, #0]
 80026d6:	4b1d      	ldr	r3, [pc, #116]	; (800274c <EXTI15_10_IRQHandler+0x180>)
 80026d8:	7819      	ldrb	r1, [r3, #0]
 80026da:	4b20      	ldr	r3, [pc, #128]	; (800275c <EXTI15_10_IRQHandler+0x190>)
 80026dc:	eb03 0382 	add.w	r3, r3, r2, lsl #2
 80026e0:	5c5a      	ldrb	r2, [r3, r1]
 80026e2:	3201      	adds	r2, #1
 80026e4:	545a      	strb	r2, [r3, r1]
		if(read_15)
 80026e6:	b128      	cbz	r0, 80026f4 <EXTI15_10_IRQHandler+0x128>
				timersType[currectTimerState][currentTimer]--;
 80026e8:	4b17      	ldr	r3, [pc, #92]	; (8002748 <EXTI15_10_IRQHandler+0x17c>)
 80026ea:	781a      	ldrb	r2, [r3, #0]
 80026ec:	4b17      	ldr	r3, [pc, #92]	; (800274c <EXTI15_10_IRQHandler+0x180>)
 80026ee:	7819      	ldrb	r1, [r3, #0]
 80026f0:	4b1a      	ldr	r3, [pc, #104]	; (800275c <EXTI15_10_IRQHandler+0x190>)
 80026f2:	e7e3      	b.n	80026bc <EXTI15_10_IRQHandler+0xf0>
		if(read_15 || read_12 || read_11 || read_10)
 80026f4:	2d00      	cmp	r5, #0
 80026f6:	d1e6      	bne.n	80026c6 <EXTI15_10_IRQHandler+0xfa>
 80026f8:	2c00      	cmp	r4, #0
 80026fa:	d1e4      	bne.n	80026c6 <EXTI15_10_IRQHandler+0xfa>
 80026fc:	2e00      	cmp	r6, #0
 80026fe:	d1e2      	bne.n	80026c6 <EXTI15_10_IRQHandler+0xfa>
		}

		TIM4->ARR = 112*112;//GetDesiredPeriodandPrescaler(.2);
 8002700:	f44f 5244 	mov.w	r2, #12544	; 0x3100
 8002704:	4b16      	ldr	r3, [pc, #88]	; (8002760 <EXTI15_10_IRQHandler+0x194>)
 8002706:	62da      	str	r2, [r3, #44]	; 0x2c
		//TIM4->ARR *= TIM4->ARR;
	}

	HAL_TIM_Base_Start_IT(&htim4);
 8002708:	4816      	ldr	r0, [pc, #88]	; (8002764 <EXTI15_10_IRQHandler+0x198>)
 800270a:	f7ff f929 	bl	8001960 <HAL_TIM_Base_Start_IT>
  /* USER CODE END EXTI15_10_IRQn 0 */
  HAL_GPIO_EXTI_IRQHandler(GPIO_PIN_10);
 800270e:	f44f 6080 	mov.w	r0, #1024	; 0x400
 8002712:	f7fe fe1d 	bl	8001350 <HAL_GPIO_EXTI_IRQHandler>
  HAL_GPIO_EXTI_IRQHandler(GPIO_PIN_11);
 8002716:	f44f 6000 	mov.w	r0, #2048	; 0x800
 800271a:	f7fe fe19 	bl	8001350 <HAL_GPIO_EXTI_IRQHandler>
  HAL_GPIO_EXTI_IRQHandler(GPIO_PIN_12);
 800271e:	f44f 5080 	mov.w	r0, #4096	; 0x1000
 8002722:	f7fe fe15 	bl	8001350 <HAL_GPIO_EXTI_IRQHandler>
  HAL_GPIO_EXTI_IRQHandler(GPIO_PIN_13);
  /* USER CODE BEGIN EXTI15_10_IRQn 1 */

  /* USER CODE END EXTI15_10_IRQn 1 */
}
 8002726:	e8bd 40f8 	ldmia.w	sp!, {r3, r4, r5, r6, r7, lr}
  HAL_GPIO_EXTI_IRQHandler(GPIO_PIN_13);
 800272a:	f44f 5000 	mov.w	r0, #8192	; 0x2000
 800272e:	f7fe be0f 	b.w	8001350 <HAL_GPIO_EXTI_IRQHandler>
				currectTimerState++;
 8002732:	7013      	strb	r3, [r2, #0]
 8002734:	e7ab      	b.n	800268e <EXTI15_10_IRQHandler+0xc2>
		if(read_15)
 8002736:	2800      	cmp	r0, #0
 8002738:	d0c5      	beq.n	80026c6 <EXTI15_10_IRQHandler+0xfa>
 800273a:	e790      	b.n	800265e <EXTI15_10_IRQHandler+0x92>
 800273c:	200000e0 	.word	0x200000e0
 8002740:	40011000 	.word	0x40011000
 8002744:	2000012a 	.word	0x2000012a
 8002748:	20000129 	.word	0x20000129
 800274c:	200000e4 	.word	0x200000e4
 8002750:	20000009 	.word	0x20000009
 8002754:	2000000a 	.word	0x2000000a
 8002758:	20000128 	.word	0x20000128
 800275c:	20000012 	.word	0x20000012
 8002760:	40000800 	.word	0x40000800
 8002764:	200000e8 	.word	0x200000e8

08002768 <TIM7_IRQHandler>:

/**
  * @brief This function handles TIM7 global interrupt.
  */
void TIM7_IRQHandler(void)
{
 8002768:	b510      	push	{r4, lr}
  /* USER CODE BEGIN TIM7_IRQn 0 */
  HAL_GPIO_TogglePin(GPIOC,GPIO_PIN_3);
 800276a:	2108      	movs	r1, #8
 800276c:	481d      	ldr	r0, [pc, #116]	; (80027e4 <TIM7_IRQHandler+0x7c>)
 800276e:	f7fe fde8 	bl	8001342 <HAL_GPIO_TogglePin>
  int read = HAL_GPIO_ReadPin(GPIOC,GPIO_PIN_3);
 8002772:	2108      	movs	r1, #8
 8002774:	481b      	ldr	r0, [pc, #108]	; (80027e4 <TIM7_IRQHandler+0x7c>)
 8002776:	f7fe fdd9 	bl	800132c <HAL_GPIO_ReadPin>
  if(read == 1)//timer set when on(relay off)
 800277a:	2801      	cmp	r0, #1
 800277c:	4b1a      	ldr	r3, [pc, #104]	; (80027e8 <TIM7_IRQHandler+0x80>)
 800277e:	4a1b      	ldr	r2, [pc, #108]	; (80027ec <TIM7_IRQHandler+0x84>)
 8002780:	d120      	bne.n	80027c4 <TIM7_IRQHandler+0x5c>
	  	  	  case hours:
	  	  		TIM7->PSC = 65535;
	  	  		offset = 60 * 60;
	  	  		  break;
	  	  }*/
	  	  if(timersType[0][0] == centi)
 8002782:	781b      	ldrb	r3, [r3, #0]
 8002784:	b1c3      	cbz	r3, 80027b8 <TIM7_IRQHandler+0x50>
	  	  	  {
	  	  		  offset = .01;
	  	  	  }else if(timersType[0][0] == minutes)
 8002786:	2b02      	cmp	r3, #2
 8002788:	d018      	beq.n	80027bc <TIM7_IRQHandler+0x54>
	  	  	  {
	  	  		  offset = 60;
	  	  	  }else if(timersType[0][0] == hours)
 800278a:	2b03      	cmp	r3, #3
 800278c:	d018      	beq.n	80027c0 <TIM7_IRQHandler+0x58>
	  	  	  {
	  	  		  offset = 60 * 60;
	  	  	  }else
	  	  	  {
	  	  		  offset = 1;
 800278e:	f04f 547e 	mov.w	r4, #1065353216	; 0x3f800000
	  	  	  }
	  	  TIM7->ARR = GetDesiredPeriodandPrescaler(timersTic[0][0] * offset);
 8002792:	7810      	ldrb	r0, [r2, #0]
	  		  offset = 60 * 60;
	  	  }else
	  	  {
	  		  offset = 1;
	  	  }
	  TIM7->ARR = GetDesiredPeriodandPrescaler(timersTic[1][0] * offset);
 8002794:	f7fe fa86 	bl	8000ca4 <__aeabi_i2f>
 8002798:	4621      	mov	r1, r4
 800279a:	f7fe fad7 	bl	8000d4c <__aeabi_fmul>
 800279e:	f7ff fd33 	bl	8002208 <GetDesiredPeriodandPrescaler>
  /* USER CODE END TIM7_IRQn 0 */
  HAL_TIM_IRQHandler(&htim7);
  /* USER CODE BEGIN TIM7_IRQn 1 */

  /* USER CODE END TIM7_IRQn 1 */
}
 80027a2:	e8bd 4010 	ldmia.w	sp!, {r4, lr}
	  TIM7->ARR = GetDesiredPeriodandPrescaler(timersTic[1][0] * offset);
 80027a6:	4b12      	ldr	r3, [pc, #72]	; (80027f0 <TIM7_IRQHandler+0x88>)
 80027a8:	62d8      	str	r0, [r3, #44]	; 0x2c
	  TIM7->PSC = TIM7->ARR;
 80027aa:	6ada      	ldr	r2, [r3, #44]	; 0x2c
  HAL_TIM_IRQHandler(&htim7);
 80027ac:	4811      	ldr	r0, [pc, #68]	; (80027f4 <TIM7_IRQHandler+0x8c>)
	  TIM7->PSC = TIM7->ARR;
 80027ae:	629a      	str	r2, [r3, #40]	; 0x28
	  TIM7->EGR = TIM_EGR_UG;//seems to only be needed when changing prescaler(PSC)
 80027b0:	2201      	movs	r2, #1
 80027b2:	615a      	str	r2, [r3, #20]
  HAL_TIM_IRQHandler(&htim7);
 80027b4:	f7ff b8fe 	b.w	80019b4 <HAL_TIM_IRQHandler>
	  	  		  offset = .01;
 80027b8:	4c0f      	ldr	r4, [pc, #60]	; (80027f8 <TIM7_IRQHandler+0x90>)
 80027ba:	e7ea      	b.n	8002792 <TIM7_IRQHandler+0x2a>
	  	  		  offset = 60;
 80027bc:	4c0f      	ldr	r4, [pc, #60]	; (80027fc <TIM7_IRQHandler+0x94>)
 80027be:	e7e8      	b.n	8002792 <TIM7_IRQHandler+0x2a>
	  	  		  offset = 60 * 60;
 80027c0:	4c0f      	ldr	r4, [pc, #60]	; (8002800 <TIM7_IRQHandler+0x98>)
 80027c2:	e7e6      	b.n	8002792 <TIM7_IRQHandler+0x2a>
	  if(timersType[1][0] == centi)
 80027c4:	791b      	ldrb	r3, [r3, #4]
 80027c6:	b13b      	cbz	r3, 80027d8 <TIM7_IRQHandler+0x70>
	  	  }else if(timersType[1][0] == minutes)
 80027c8:	2b02      	cmp	r3, #2
 80027ca:	d007      	beq.n	80027dc <TIM7_IRQHandler+0x74>
	  	  }else if(timersType[1][0] == hours)
 80027cc:	2b03      	cmp	r3, #3
 80027ce:	d007      	beq.n	80027e0 <TIM7_IRQHandler+0x78>
	  		  offset = 1;
 80027d0:	f04f 547e 	mov.w	r4, #1065353216	; 0x3f800000
	  TIM7->ARR = GetDesiredPeriodandPrescaler(timersTic[1][0] * offset);
 80027d4:	7910      	ldrb	r0, [r2, #4]
 80027d6:	e7dd      	b.n	8002794 <TIM7_IRQHandler+0x2c>
	  		  offset = .01;
 80027d8:	4c07      	ldr	r4, [pc, #28]	; (80027f8 <TIM7_IRQHandler+0x90>)
 80027da:	e7fb      	b.n	80027d4 <TIM7_IRQHandler+0x6c>
	  		  offset = 60;
 80027dc:	4c07      	ldr	r4, [pc, #28]	; (80027fc <TIM7_IRQHandler+0x94>)
 80027de:	e7f9      	b.n	80027d4 <TIM7_IRQHandler+0x6c>
	  		  offset = 60 * 60;
 80027e0:	4c07      	ldr	r4, [pc, #28]	; (8002800 <TIM7_IRQHandler+0x98>)
 80027e2:	e7f7      	b.n	80027d4 <TIM7_IRQHandler+0x6c>
 80027e4:	40011000 	.word	0x40011000
 80027e8:	20000012 	.word	0x20000012
 80027ec:	2000000a 	.word	0x2000000a
 80027f0:	40001400 	.word	0x40001400
 80027f4:	2000012c 	.word	0x2000012c
 80027f8:	3c23d70a 	.word	0x3c23d70a
 80027fc:	42700000 	.word	0x42700000
 8002800:	45610000 	.word	0x45610000

08002804 <_sbrk>:
	}
	return len;
}

caddr_t _sbrk(int incr)
{
 8002804:	b508      	push	{r3, lr}
	extern char end asm("end");
	static char *heap_end;
	char *prev_heap_end;

	if (heap_end == 0)
 8002806:	4b0a      	ldr	r3, [pc, #40]	; (8002830 <_sbrk+0x2c>)
{
 8002808:	4602      	mov	r2, r0
	if (heap_end == 0)
 800280a:	6819      	ldr	r1, [r3, #0]
 800280c:	b909      	cbnz	r1, 8002812 <_sbrk+0xe>
		heap_end = &end;
 800280e:	4909      	ldr	r1, [pc, #36]	; (8002834 <_sbrk+0x30>)
 8002810:	6019      	str	r1, [r3, #0]

	prev_heap_end = heap_end;
	if (heap_end + incr > stack_ptr)
 8002812:	4669      	mov	r1, sp
	prev_heap_end = heap_end;
 8002814:	6818      	ldr	r0, [r3, #0]
	if (heap_end + incr > stack_ptr)
 8002816:	4402      	add	r2, r0
 8002818:	428a      	cmp	r2, r1
 800281a:	d906      	bls.n	800282a <_sbrk+0x26>
	{
//		write(1, "Heap and stack collision\n", 25);
//		abort();
		errno = ENOMEM;
 800281c:	f000 f85a 	bl	80028d4 <__errno>
 8002820:	230c      	movs	r3, #12
 8002822:	6003      	str	r3, [r0, #0]
		return (caddr_t) -1;
 8002824:	f04f 30ff 	mov.w	r0, #4294967295
 8002828:	bd08      	pop	{r3, pc}
	}

	heap_end += incr;
 800282a:	601a      	str	r2, [r3, #0]

	return (caddr_t) prev_heap_end;
}
 800282c:	bd08      	pop	{r3, pc}
 800282e:	bf00      	nop
 8002830:	200000a8 	.word	0x200000a8
 8002834:	20000170 	.word	0x20000170

08002838 <SystemInit>:
  */
void SystemInit (void)
{
  /* Reset the RCC clock configuration to the default reset state(for debug purpose) */
  /* Set HSION bit */
  RCC->CR |= 0x00000001U;
 8002838:	4b10      	ldr	r3, [pc, #64]	; (800287c <SystemInit+0x44>)
 800283a:	681a      	ldr	r2, [r3, #0]
 800283c:	f042 0201 	orr.w	r2, r2, #1
 8002840:	601a      	str	r2, [r3, #0]

  /* Reset SW, HPRE, PPRE1, PPRE2, ADCPRE and MCO bits */
#if !defined(STM32F105xC) && !defined(STM32F107xC)
  RCC->CFGR &= 0xF8FF0000U;
 8002842:	6859      	ldr	r1, [r3, #4]
 8002844:	4a0e      	ldr	r2, [pc, #56]	; (8002880 <SystemInit+0x48>)
 8002846:	400a      	ands	r2, r1
 8002848:	605a      	str	r2, [r3, #4]
#else
  RCC->CFGR &= 0xF0FF0000U;
#endif /* STM32F105xC */   
  
  /* Reset HSEON, CSSON and PLLON bits */
  RCC->CR &= 0xFEF6FFFFU;
 800284a:	681a      	ldr	r2, [r3, #0]
 800284c:	f022 7284 	bic.w	r2, r2, #17301504	; 0x1080000
 8002850:	f422 3280 	bic.w	r2, r2, #65536	; 0x10000
 8002854:	601a      	str	r2, [r3, #0]

  /* Reset HSEBYP bit */
  RCC->CR &= 0xFFFBFFFFU;
 8002856:	681a      	ldr	r2, [r3, #0]
 8002858:	f422 2280 	bic.w	r2, r2, #262144	; 0x40000
 800285c:	601a      	str	r2, [r3, #0]

  /* Reset PLLSRC, PLLXTPRE, PLLMUL and USBPRE/OTGFSPRE bits */
  RCC->CFGR &= 0xFF80FFFFU;
 800285e:	685a      	ldr	r2, [r3, #4]
 8002860:	f422 02fe 	bic.w	r2, r2, #8323072	; 0x7f0000
 8002864:	605a      	str	r2, [r3, #4]

  /* Reset CFGR2 register */
  RCC->CFGR2 = 0x00000000U;
#elif defined(STM32F100xB) || defined(STM32F100xE)
  /* Disable all interrupts and clear pending bits  */
  RCC->CIR = 0x009F0000U;
 8002866:	f44f 021f 	mov.w	r2, #10420224	; 0x9f0000
 800286a:	609a      	str	r2, [r3, #8]

  /* Reset CFGR2 register */
  RCC->CFGR2 = 0x00000000U;      
 800286c:	2200      	movs	r2, #0
 800286e:	62da      	str	r2, [r3, #44]	; 0x2c
#endif 

#ifdef VECT_TAB_SRAM
  SCB->VTOR = SRAM_BASE | VECT_TAB_OFFSET; /* Vector Table Relocation in Internal SRAM. */
#else
  SCB->VTOR = FLASH_BASE | VECT_TAB_OFFSET; /* Vector Table Relocation in Internal FLASH. */
 8002870:	f04f 6200 	mov.w	r2, #134217728	; 0x8000000
 8002874:	4b03      	ldr	r3, [pc, #12]	; (8002884 <SystemInit+0x4c>)
 8002876:	609a      	str	r2, [r3, #8]
 8002878:	4770      	bx	lr
 800287a:	bf00      	nop
 800287c:	40021000 	.word	0x40021000
 8002880:	f8ff0000 	.word	0xf8ff0000
 8002884:	e000ed00 	.word	0xe000ed00

08002888 <Reset_Handler>:
  .weak Reset_Handler
  .type Reset_Handler, %function
Reset_Handler:

/* Copy the data segment initializers from flash to SRAM */
  movs r1, #0
 8002888:	2100      	movs	r1, #0
  b LoopCopyDataInit
 800288a:	e003      	b.n	8002894 <LoopCopyDataInit>

0800288c <CopyDataInit>:

CopyDataInit:
  ldr r3, =_sidata
 800288c:	4b0b      	ldr	r3, [pc, #44]	; (80028bc <LoopFillZerobss+0x14>)
  ldr r3, [r3, r1]
 800288e:	585b      	ldr	r3, [r3, r1]
  str r3, [r0, r1]
 8002890:	5043      	str	r3, [r0, r1]
  adds r1, r1, #4
 8002892:	3104      	adds	r1, #4

08002894 <LoopCopyDataInit>:

LoopCopyDataInit:
  ldr r0, =_sdata
 8002894:	480a      	ldr	r0, [pc, #40]	; (80028c0 <LoopFillZerobss+0x18>)
  ldr r3, =_edata
 8002896:	4b0b      	ldr	r3, [pc, #44]	; (80028c4 <LoopFillZerobss+0x1c>)
  adds r2, r0, r1
 8002898:	1842      	adds	r2, r0, r1
  cmp r2, r3
 800289a:	429a      	cmp	r2, r3
  bcc CopyDataInit
 800289c:	d3f6      	bcc.n	800288c <CopyDataInit>
  ldr r2, =_sbss
 800289e:	4a0a      	ldr	r2, [pc, #40]	; (80028c8 <LoopFillZerobss+0x20>)
  b LoopFillZerobss
 80028a0:	e002      	b.n	80028a8 <LoopFillZerobss>

080028a2 <FillZerobss>:
/* Zero fill the bss segment. */
FillZerobss:
  movs r3, #0
 80028a2:	2300      	movs	r3, #0
  str r3, [r2], #4
 80028a4:	f842 3b04 	str.w	r3, [r2], #4

080028a8 <LoopFillZerobss>:

LoopFillZerobss:
  ldr r3, = _ebss
 80028a8:	4b08      	ldr	r3, [pc, #32]	; (80028cc <LoopFillZerobss+0x24>)
  cmp r2, r3
 80028aa:	429a      	cmp	r2, r3
  bcc FillZerobss
 80028ac:	d3f9      	bcc.n	80028a2 <FillZerobss>

/* Call the clock system intitialization function.*/
    bl  SystemInit
 80028ae:	f7ff ffc3 	bl	8002838 <SystemInit>
/* Call static constructors */
    bl __libc_init_array
 80028b2:	f000 f815 	bl	80028e0 <__libc_init_array>
/* Call the application's entry point.*/
  bl main
 80028b6:	f7ff fceb 	bl	8002290 <main>
  bx lr
 80028ba:	4770      	bx	lr
  ldr r3, =_sidata
 80028bc:	08003468 	.word	0x08003468
  ldr r0, =_sdata
 80028c0:	20000000 	.word	0x20000000
  ldr r3, =_edata
 80028c4:	20000088 	.word	0x20000088
  ldr r2, =_sbss
 80028c8:	20000088 	.word	0x20000088
  ldr r3, = _ebss
 80028cc:	20000170 	.word	0x20000170

080028d0 <ADC1_IRQHandler>:
 * @retval : None
*/
    .section .text.Default_Handler,"ax",%progbits
Default_Handler:
Infinite_Loop:
  b Infinite_Loop
 80028d0:	e7fe      	b.n	80028d0 <ADC1_IRQHandler>
	...

080028d4 <__errno>:
 80028d4:	4b01      	ldr	r3, [pc, #4]	; (80028dc <__errno+0x8>)
 80028d6:	6818      	ldr	r0, [r3, #0]
 80028d8:	4770      	bx	lr
 80028da:	bf00      	nop
 80028dc:	20000020 	.word	0x20000020

080028e0 <__libc_init_array>:
 80028e0:	b570      	push	{r4, r5, r6, lr}
 80028e2:	2500      	movs	r5, #0
 80028e4:	4e0c      	ldr	r6, [pc, #48]	; (8002918 <__libc_init_array+0x38>)
 80028e6:	4c0d      	ldr	r4, [pc, #52]	; (800291c <__libc_init_array+0x3c>)
 80028e8:	1ba4      	subs	r4, r4, r6
 80028ea:	10a4      	asrs	r4, r4, #2
 80028ec:	42a5      	cmp	r5, r4
 80028ee:	d109      	bne.n	8002904 <__libc_init_array+0x24>
 80028f0:	f000 fd50 	bl	8003394 <_init>
 80028f4:	2500      	movs	r5, #0
 80028f6:	4e0a      	ldr	r6, [pc, #40]	; (8002920 <__libc_init_array+0x40>)
 80028f8:	4c0a      	ldr	r4, [pc, #40]	; (8002924 <__libc_init_array+0x44>)
 80028fa:	1ba4      	subs	r4, r4, r6
 80028fc:	10a4      	asrs	r4, r4, #2
 80028fe:	42a5      	cmp	r5, r4
 8002900:	d105      	bne.n	800290e <__libc_init_array+0x2e>
 8002902:	bd70      	pop	{r4, r5, r6, pc}
 8002904:	f856 3025 	ldr.w	r3, [r6, r5, lsl #2]
 8002908:	4798      	blx	r3
 800290a:	3501      	adds	r5, #1
 800290c:	e7ee      	b.n	80028ec <__libc_init_array+0xc>
 800290e:	f856 3025 	ldr.w	r3, [r6, r5, lsl #2]
 8002912:	4798      	blx	r3
 8002914:	3501      	adds	r5, #1
 8002916:	e7f2      	b.n	80028fe <__libc_init_array+0x1e>
 8002918:	08003460 	.word	0x08003460
 800291c:	08003460 	.word	0x08003460
 8002920:	08003460 	.word	0x08003460
 8002924:	08003464 	.word	0x08003464

08002928 <memset>:
 8002928:	4603      	mov	r3, r0
 800292a:	4402      	add	r2, r0
 800292c:	4293      	cmp	r3, r2
 800292e:	d100      	bne.n	8002932 <memset+0xa>
 8002930:	4770      	bx	lr
 8002932:	f803 1b01 	strb.w	r1, [r3], #1
 8002936:	e7f9      	b.n	800292c <memset+0x4>

08002938 <siprintf>:
 8002938:	b40e      	push	{r1, r2, r3}
 800293a:	f44f 7102 	mov.w	r1, #520	; 0x208
 800293e:	b500      	push	{lr}
 8002940:	b09c      	sub	sp, #112	; 0x70
 8002942:	f8ad 1014 	strh.w	r1, [sp, #20]
 8002946:	f06f 4100 	mvn.w	r1, #2147483648	; 0x80000000
 800294a:	9104      	str	r1, [sp, #16]
 800294c:	9107      	str	r1, [sp, #28]
 800294e:	f64f 71ff 	movw	r1, #65535	; 0xffff
 8002952:	ab1d      	add	r3, sp, #116	; 0x74
 8002954:	9002      	str	r0, [sp, #8]
 8002956:	9006      	str	r0, [sp, #24]
 8002958:	4808      	ldr	r0, [pc, #32]	; (800297c <siprintf+0x44>)
 800295a:	f853 2b04 	ldr.w	r2, [r3], #4
 800295e:	f8ad 1016 	strh.w	r1, [sp, #22]
 8002962:	6800      	ldr	r0, [r0, #0]
 8002964:	a902      	add	r1, sp, #8
 8002966:	9301      	str	r3, [sp, #4]
 8002968:	f000 f866 	bl	8002a38 <_svfiprintf_r>
 800296c:	2200      	movs	r2, #0
 800296e:	9b02      	ldr	r3, [sp, #8]
 8002970:	701a      	strb	r2, [r3, #0]
 8002972:	b01c      	add	sp, #112	; 0x70
 8002974:	f85d eb04 	ldr.w	lr, [sp], #4
 8002978:	b003      	add	sp, #12
 800297a:	4770      	bx	lr
 800297c:	20000020 	.word	0x20000020

08002980 <__ssputs_r>:
 8002980:	e92d 47f0 	stmdb	sp!, {r4, r5, r6, r7, r8, r9, sl, lr}
 8002984:	688e      	ldr	r6, [r1, #8]
 8002986:	4682      	mov	sl, r0
 8002988:	429e      	cmp	r6, r3
 800298a:	460c      	mov	r4, r1
 800298c:	4691      	mov	r9, r2
 800298e:	4698      	mov	r8, r3
 8002990:	d835      	bhi.n	80029fe <__ssputs_r+0x7e>
 8002992:	898a      	ldrh	r2, [r1, #12]
 8002994:	f412 6f90 	tst.w	r2, #1152	; 0x480
 8002998:	d031      	beq.n	80029fe <__ssputs_r+0x7e>
 800299a:	2302      	movs	r3, #2
 800299c:	6825      	ldr	r5, [r4, #0]
 800299e:	6909      	ldr	r1, [r1, #16]
 80029a0:	1a6f      	subs	r7, r5, r1
 80029a2:	6965      	ldr	r5, [r4, #20]
 80029a4:	eb05 0545 	add.w	r5, r5, r5, lsl #1
 80029a8:	fb95 f5f3 	sdiv	r5, r5, r3
 80029ac:	f108 0301 	add.w	r3, r8, #1
 80029b0:	443b      	add	r3, r7
 80029b2:	429d      	cmp	r5, r3
 80029b4:	bf38      	it	cc
 80029b6:	461d      	movcc	r5, r3
 80029b8:	0553      	lsls	r3, r2, #21
 80029ba:	d531      	bpl.n	8002a20 <__ssputs_r+0xa0>
 80029bc:	4629      	mov	r1, r5
 80029be:	f000 fb47 	bl	8003050 <_malloc_r>
 80029c2:	4606      	mov	r6, r0
 80029c4:	b950      	cbnz	r0, 80029dc <__ssputs_r+0x5c>
 80029c6:	230c      	movs	r3, #12
 80029c8:	f8ca 3000 	str.w	r3, [sl]
 80029cc:	89a3      	ldrh	r3, [r4, #12]
 80029ce:	f04f 30ff 	mov.w	r0, #4294967295
 80029d2:	f043 0340 	orr.w	r3, r3, #64	; 0x40
 80029d6:	81a3      	strh	r3, [r4, #12]
 80029d8:	e8bd 87f0 	ldmia.w	sp!, {r4, r5, r6, r7, r8, r9, sl, pc}
 80029dc:	463a      	mov	r2, r7
 80029de:	6921      	ldr	r1, [r4, #16]
 80029e0:	f000 fac4 	bl	8002f6c <memcpy>
 80029e4:	89a3      	ldrh	r3, [r4, #12]
 80029e6:	f423 6390 	bic.w	r3, r3, #1152	; 0x480
 80029ea:	f043 0380 	orr.w	r3, r3, #128	; 0x80
 80029ee:	81a3      	strh	r3, [r4, #12]
 80029f0:	6126      	str	r6, [r4, #16]
 80029f2:	443e      	add	r6, r7
 80029f4:	6026      	str	r6, [r4, #0]
 80029f6:	4646      	mov	r6, r8
 80029f8:	6165      	str	r5, [r4, #20]
 80029fa:	1bed      	subs	r5, r5, r7
 80029fc:	60a5      	str	r5, [r4, #8]
 80029fe:	4546      	cmp	r6, r8
 8002a00:	bf28      	it	cs
 8002a02:	4646      	movcs	r6, r8
 8002a04:	4649      	mov	r1, r9
 8002a06:	4632      	mov	r2, r6
 8002a08:	6820      	ldr	r0, [r4, #0]
 8002a0a:	f000 faba 	bl	8002f82 <memmove>
 8002a0e:	68a3      	ldr	r3, [r4, #8]
 8002a10:	2000      	movs	r0, #0
 8002a12:	1b9b      	subs	r3, r3, r6
 8002a14:	60a3      	str	r3, [r4, #8]
 8002a16:	6823      	ldr	r3, [r4, #0]
 8002a18:	441e      	add	r6, r3
 8002a1a:	6026      	str	r6, [r4, #0]
 8002a1c:	e8bd 87f0 	ldmia.w	sp!, {r4, r5, r6, r7, r8, r9, sl, pc}
 8002a20:	462a      	mov	r2, r5
 8002a22:	f000 fb73 	bl	800310c <_realloc_r>
 8002a26:	4606      	mov	r6, r0
 8002a28:	2800      	cmp	r0, #0
 8002a2a:	d1e1      	bne.n	80029f0 <__ssputs_r+0x70>
 8002a2c:	6921      	ldr	r1, [r4, #16]
 8002a2e:	4650      	mov	r0, sl
 8002a30:	f000 fac2 	bl	8002fb8 <_free_r>
 8002a34:	e7c7      	b.n	80029c6 <__ssputs_r+0x46>
	...

08002a38 <_svfiprintf_r>:
 8002a38:	e92d 4ff0 	stmdb	sp!, {r4, r5, r6, r7, r8, r9, sl, fp, lr}
 8002a3c:	b09d      	sub	sp, #116	; 0x74
 8002a3e:	9303      	str	r3, [sp, #12]
 8002a40:	898b      	ldrh	r3, [r1, #12]
 8002a42:	4680      	mov	r8, r0
 8002a44:	061c      	lsls	r4, r3, #24
 8002a46:	460d      	mov	r5, r1
 8002a48:	4616      	mov	r6, r2
 8002a4a:	d50f      	bpl.n	8002a6c <_svfiprintf_r+0x34>
 8002a4c:	690b      	ldr	r3, [r1, #16]
 8002a4e:	b96b      	cbnz	r3, 8002a6c <_svfiprintf_r+0x34>
 8002a50:	2140      	movs	r1, #64	; 0x40
 8002a52:	f000 fafd 	bl	8003050 <_malloc_r>
 8002a56:	6028      	str	r0, [r5, #0]
 8002a58:	6128      	str	r0, [r5, #16]
 8002a5a:	b928      	cbnz	r0, 8002a68 <_svfiprintf_r+0x30>
 8002a5c:	230c      	movs	r3, #12
 8002a5e:	f8c8 3000 	str.w	r3, [r8]
 8002a62:	f04f 30ff 	mov.w	r0, #4294967295
 8002a66:	e0c4      	b.n	8002bf2 <_svfiprintf_r+0x1ba>
 8002a68:	2340      	movs	r3, #64	; 0x40
 8002a6a:	616b      	str	r3, [r5, #20]
 8002a6c:	2300      	movs	r3, #0
 8002a6e:	9309      	str	r3, [sp, #36]	; 0x24
 8002a70:	2320      	movs	r3, #32
 8002a72:	f88d 3029 	strb.w	r3, [sp, #41]	; 0x29
 8002a76:	2330      	movs	r3, #48	; 0x30
 8002a78:	f04f 0b01 	mov.w	fp, #1
 8002a7c:	f88d 302a 	strb.w	r3, [sp, #42]	; 0x2a
 8002a80:	4637      	mov	r7, r6
 8002a82:	463c      	mov	r4, r7
 8002a84:	f814 3b01 	ldrb.w	r3, [r4], #1
 8002a88:	2b00      	cmp	r3, #0
 8002a8a:	d13c      	bne.n	8002b06 <_svfiprintf_r+0xce>
 8002a8c:	ebb7 0a06 	subs.w	sl, r7, r6
 8002a90:	d00b      	beq.n	8002aaa <_svfiprintf_r+0x72>
 8002a92:	4653      	mov	r3, sl
 8002a94:	4632      	mov	r2, r6
 8002a96:	4629      	mov	r1, r5
 8002a98:	4640      	mov	r0, r8
 8002a9a:	f7ff ff71 	bl	8002980 <__ssputs_r>
 8002a9e:	3001      	adds	r0, #1
 8002aa0:	f000 80a2 	beq.w	8002be8 <_svfiprintf_r+0x1b0>
 8002aa4:	9b09      	ldr	r3, [sp, #36]	; 0x24
 8002aa6:	4453      	add	r3, sl
 8002aa8:	9309      	str	r3, [sp, #36]	; 0x24
 8002aaa:	783b      	ldrb	r3, [r7, #0]
 8002aac:	2b00      	cmp	r3, #0
 8002aae:	f000 809b 	beq.w	8002be8 <_svfiprintf_r+0x1b0>
 8002ab2:	2300      	movs	r3, #0
 8002ab4:	f04f 32ff 	mov.w	r2, #4294967295
 8002ab8:	9304      	str	r3, [sp, #16]
 8002aba:	9307      	str	r3, [sp, #28]
 8002abc:	9205      	str	r2, [sp, #20]
 8002abe:	9306      	str	r3, [sp, #24]
 8002ac0:	f88d 3053 	strb.w	r3, [sp, #83]	; 0x53
 8002ac4:	931a      	str	r3, [sp, #104]	; 0x68
 8002ac6:	2205      	movs	r2, #5
 8002ac8:	7821      	ldrb	r1, [r4, #0]
 8002aca:	4850      	ldr	r0, [pc, #320]	; (8002c0c <_svfiprintf_r+0x1d4>)
 8002acc:	f000 fa40 	bl	8002f50 <memchr>
 8002ad0:	1c67      	adds	r7, r4, #1
 8002ad2:	9b04      	ldr	r3, [sp, #16]
 8002ad4:	b9d8      	cbnz	r0, 8002b0e <_svfiprintf_r+0xd6>
 8002ad6:	06d9      	lsls	r1, r3, #27
 8002ad8:	bf44      	itt	mi
 8002ada:	2220      	movmi	r2, #32
 8002adc:	f88d 2053 	strbmi.w	r2, [sp, #83]	; 0x53
 8002ae0:	071a      	lsls	r2, r3, #28
 8002ae2:	bf44      	itt	mi
 8002ae4:	222b      	movmi	r2, #43	; 0x2b
 8002ae6:	f88d 2053 	strbmi.w	r2, [sp, #83]	; 0x53
 8002aea:	7822      	ldrb	r2, [r4, #0]
 8002aec:	2a2a      	cmp	r2, #42	; 0x2a
 8002aee:	d016      	beq.n	8002b1e <_svfiprintf_r+0xe6>
 8002af0:	2100      	movs	r1, #0
 8002af2:	200a      	movs	r0, #10
 8002af4:	9a07      	ldr	r2, [sp, #28]
 8002af6:	4627      	mov	r7, r4
 8002af8:	783b      	ldrb	r3, [r7, #0]
 8002afa:	3401      	adds	r4, #1
 8002afc:	3b30      	subs	r3, #48	; 0x30
 8002afe:	2b09      	cmp	r3, #9
 8002b00:	d950      	bls.n	8002ba4 <_svfiprintf_r+0x16c>
 8002b02:	b1c9      	cbz	r1, 8002b38 <_svfiprintf_r+0x100>
 8002b04:	e011      	b.n	8002b2a <_svfiprintf_r+0xf2>
 8002b06:	2b25      	cmp	r3, #37	; 0x25
 8002b08:	d0c0      	beq.n	8002a8c <_svfiprintf_r+0x54>
 8002b0a:	4627      	mov	r7, r4
 8002b0c:	e7b9      	b.n	8002a82 <_svfiprintf_r+0x4a>
 8002b0e:	4a3f      	ldr	r2, [pc, #252]	; (8002c0c <_svfiprintf_r+0x1d4>)
 8002b10:	463c      	mov	r4, r7
 8002b12:	1a80      	subs	r0, r0, r2
 8002b14:	fa0b f000 	lsl.w	r0, fp, r0
 8002b18:	4318      	orrs	r0, r3
 8002b1a:	9004      	str	r0, [sp, #16]
 8002b1c:	e7d3      	b.n	8002ac6 <_svfiprintf_r+0x8e>
 8002b1e:	9a03      	ldr	r2, [sp, #12]
 8002b20:	1d11      	adds	r1, r2, #4
 8002b22:	6812      	ldr	r2, [r2, #0]
 8002b24:	9103      	str	r1, [sp, #12]
 8002b26:	2a00      	cmp	r2, #0
 8002b28:	db01      	blt.n	8002b2e <_svfiprintf_r+0xf6>
 8002b2a:	9207      	str	r2, [sp, #28]
 8002b2c:	e004      	b.n	8002b38 <_svfiprintf_r+0x100>
 8002b2e:	4252      	negs	r2, r2
 8002b30:	f043 0302 	orr.w	r3, r3, #2
 8002b34:	9207      	str	r2, [sp, #28]
 8002b36:	9304      	str	r3, [sp, #16]
 8002b38:	783b      	ldrb	r3, [r7, #0]
 8002b3a:	2b2e      	cmp	r3, #46	; 0x2e
 8002b3c:	d10d      	bne.n	8002b5a <_svfiprintf_r+0x122>
 8002b3e:	787b      	ldrb	r3, [r7, #1]
 8002b40:	1c79      	adds	r1, r7, #1
 8002b42:	2b2a      	cmp	r3, #42	; 0x2a
 8002b44:	d132      	bne.n	8002bac <_svfiprintf_r+0x174>
 8002b46:	9b03      	ldr	r3, [sp, #12]
 8002b48:	3702      	adds	r7, #2
 8002b4a:	1d1a      	adds	r2, r3, #4
 8002b4c:	681b      	ldr	r3, [r3, #0]
 8002b4e:	9203      	str	r2, [sp, #12]
 8002b50:	2b00      	cmp	r3, #0
 8002b52:	bfb8      	it	lt
 8002b54:	f04f 33ff 	movlt.w	r3, #4294967295
 8002b58:	9305      	str	r3, [sp, #20]
 8002b5a:	4c2d      	ldr	r4, [pc, #180]	; (8002c10 <_svfiprintf_r+0x1d8>)
 8002b5c:	2203      	movs	r2, #3
 8002b5e:	7839      	ldrb	r1, [r7, #0]
 8002b60:	4620      	mov	r0, r4
 8002b62:	f000 f9f5 	bl	8002f50 <memchr>
 8002b66:	b138      	cbz	r0, 8002b78 <_svfiprintf_r+0x140>
 8002b68:	2340      	movs	r3, #64	; 0x40
 8002b6a:	1b00      	subs	r0, r0, r4
 8002b6c:	fa03 f000 	lsl.w	r0, r3, r0
 8002b70:	9b04      	ldr	r3, [sp, #16]
 8002b72:	3701      	adds	r7, #1
 8002b74:	4303      	orrs	r3, r0
 8002b76:	9304      	str	r3, [sp, #16]
 8002b78:	7839      	ldrb	r1, [r7, #0]
 8002b7a:	2206      	movs	r2, #6
 8002b7c:	4825      	ldr	r0, [pc, #148]	; (8002c14 <_svfiprintf_r+0x1dc>)
 8002b7e:	1c7e      	adds	r6, r7, #1
 8002b80:	f88d 1028 	strb.w	r1, [sp, #40]	; 0x28
 8002b84:	f000 f9e4 	bl	8002f50 <memchr>
 8002b88:	2800      	cmp	r0, #0
 8002b8a:	d035      	beq.n	8002bf8 <_svfiprintf_r+0x1c0>
 8002b8c:	4b22      	ldr	r3, [pc, #136]	; (8002c18 <_svfiprintf_r+0x1e0>)
 8002b8e:	b9fb      	cbnz	r3, 8002bd0 <_svfiprintf_r+0x198>
 8002b90:	9b03      	ldr	r3, [sp, #12]
 8002b92:	3307      	adds	r3, #7
 8002b94:	f023 0307 	bic.w	r3, r3, #7
 8002b98:	3308      	adds	r3, #8
 8002b9a:	9303      	str	r3, [sp, #12]
 8002b9c:	9b09      	ldr	r3, [sp, #36]	; 0x24
 8002b9e:	444b      	add	r3, r9
 8002ba0:	9309      	str	r3, [sp, #36]	; 0x24
 8002ba2:	e76d      	b.n	8002a80 <_svfiprintf_r+0x48>
 8002ba4:	fb00 3202 	mla	r2, r0, r2, r3
 8002ba8:	2101      	movs	r1, #1
 8002baa:	e7a4      	b.n	8002af6 <_svfiprintf_r+0xbe>
 8002bac:	2300      	movs	r3, #0
 8002bae:	240a      	movs	r4, #10
 8002bb0:	4618      	mov	r0, r3
 8002bb2:	9305      	str	r3, [sp, #20]
 8002bb4:	460f      	mov	r7, r1
 8002bb6:	783a      	ldrb	r2, [r7, #0]
 8002bb8:	3101      	adds	r1, #1
 8002bba:	3a30      	subs	r2, #48	; 0x30
 8002bbc:	2a09      	cmp	r2, #9
 8002bbe:	d903      	bls.n	8002bc8 <_svfiprintf_r+0x190>
 8002bc0:	2b00      	cmp	r3, #0
 8002bc2:	d0ca      	beq.n	8002b5a <_svfiprintf_r+0x122>
 8002bc4:	9005      	str	r0, [sp, #20]
 8002bc6:	e7c8      	b.n	8002b5a <_svfiprintf_r+0x122>
 8002bc8:	fb04 2000 	mla	r0, r4, r0, r2
 8002bcc:	2301      	movs	r3, #1
 8002bce:	e7f1      	b.n	8002bb4 <_svfiprintf_r+0x17c>
 8002bd0:	ab03      	add	r3, sp, #12
 8002bd2:	9300      	str	r3, [sp, #0]
 8002bd4:	462a      	mov	r2, r5
 8002bd6:	4b11      	ldr	r3, [pc, #68]	; (8002c1c <_svfiprintf_r+0x1e4>)
 8002bd8:	a904      	add	r1, sp, #16
 8002bda:	4640      	mov	r0, r8
 8002bdc:	f3af 8000 	nop.w
 8002be0:	f1b0 3fff 	cmp.w	r0, #4294967295
 8002be4:	4681      	mov	r9, r0
 8002be6:	d1d9      	bne.n	8002b9c <_svfiprintf_r+0x164>
 8002be8:	89ab      	ldrh	r3, [r5, #12]
 8002bea:	065b      	lsls	r3, r3, #25
 8002bec:	f53f af39 	bmi.w	8002a62 <_svfiprintf_r+0x2a>
 8002bf0:	9809      	ldr	r0, [sp, #36]	; 0x24
 8002bf2:	b01d      	add	sp, #116	; 0x74
 8002bf4:	e8bd 8ff0 	ldmia.w	sp!, {r4, r5, r6, r7, r8, r9, sl, fp, pc}
 8002bf8:	ab03      	add	r3, sp, #12
 8002bfa:	9300      	str	r3, [sp, #0]
 8002bfc:	462a      	mov	r2, r5
 8002bfe:	4b07      	ldr	r3, [pc, #28]	; (8002c1c <_svfiprintf_r+0x1e4>)
 8002c00:	a904      	add	r1, sp, #16
 8002c02:	4640      	mov	r0, r8
 8002c04:	f000 f884 	bl	8002d10 <_printf_i>
 8002c08:	e7ea      	b.n	8002be0 <_svfiprintf_r+0x1a8>
 8002c0a:	bf00      	nop
 8002c0c:	08003425 	.word	0x08003425
 8002c10:	0800342b 	.word	0x0800342b
 8002c14:	0800342f 	.word	0x0800342f
 8002c18:	00000000 	.word	0x00000000
 8002c1c:	08002981 	.word	0x08002981

08002c20 <_printf_common>:
 8002c20:	e92d 47f0 	stmdb	sp!, {r4, r5, r6, r7, r8, r9, sl, lr}
 8002c24:	4691      	mov	r9, r2
 8002c26:	461f      	mov	r7, r3
 8002c28:	688a      	ldr	r2, [r1, #8]
 8002c2a:	690b      	ldr	r3, [r1, #16]
 8002c2c:	4606      	mov	r6, r0
 8002c2e:	4293      	cmp	r3, r2
 8002c30:	bfb8      	it	lt
 8002c32:	4613      	movlt	r3, r2
 8002c34:	f8c9 3000 	str.w	r3, [r9]
 8002c38:	f891 2043 	ldrb.w	r2, [r1, #67]	; 0x43
 8002c3c:	460c      	mov	r4, r1
 8002c3e:	f8dd 8020 	ldr.w	r8, [sp, #32]
 8002c42:	b112      	cbz	r2, 8002c4a <_printf_common+0x2a>
 8002c44:	3301      	adds	r3, #1
 8002c46:	f8c9 3000 	str.w	r3, [r9]
 8002c4a:	6823      	ldr	r3, [r4, #0]
 8002c4c:	0699      	lsls	r1, r3, #26
 8002c4e:	bf42      	ittt	mi
 8002c50:	f8d9 3000 	ldrmi.w	r3, [r9]
 8002c54:	3302      	addmi	r3, #2
 8002c56:	f8c9 3000 	strmi.w	r3, [r9]
 8002c5a:	6825      	ldr	r5, [r4, #0]
 8002c5c:	f015 0506 	ands.w	r5, r5, #6
 8002c60:	d107      	bne.n	8002c72 <_printf_common+0x52>
 8002c62:	f104 0a19 	add.w	sl, r4, #25
 8002c66:	68e3      	ldr	r3, [r4, #12]
 8002c68:	f8d9 2000 	ldr.w	r2, [r9]
 8002c6c:	1a9b      	subs	r3, r3, r2
 8002c6e:	429d      	cmp	r5, r3
 8002c70:	db2a      	blt.n	8002cc8 <_printf_common+0xa8>
 8002c72:	f894 3043 	ldrb.w	r3, [r4, #67]	; 0x43
 8002c76:	6822      	ldr	r2, [r4, #0]
 8002c78:	3300      	adds	r3, #0
 8002c7a:	bf18      	it	ne
 8002c7c:	2301      	movne	r3, #1
 8002c7e:	0692      	lsls	r2, r2, #26
 8002c80:	d42f      	bmi.n	8002ce2 <_printf_common+0xc2>
 8002c82:	f104 0243 	add.w	r2, r4, #67	; 0x43
 8002c86:	4639      	mov	r1, r7
 8002c88:	4630      	mov	r0, r6
 8002c8a:	47c0      	blx	r8
 8002c8c:	3001      	adds	r0, #1
 8002c8e:	d022      	beq.n	8002cd6 <_printf_common+0xb6>
 8002c90:	6823      	ldr	r3, [r4, #0]
 8002c92:	68e5      	ldr	r5, [r4, #12]
 8002c94:	f003 0306 	and.w	r3, r3, #6
 8002c98:	2b04      	cmp	r3, #4
 8002c9a:	bf18      	it	ne
 8002c9c:	2500      	movne	r5, #0
 8002c9e:	f8d9 2000 	ldr.w	r2, [r9]
 8002ca2:	f04f 0900 	mov.w	r9, #0
 8002ca6:	bf08      	it	eq
 8002ca8:	1aad      	subeq	r5, r5, r2
 8002caa:	68a3      	ldr	r3, [r4, #8]
 8002cac:	6922      	ldr	r2, [r4, #16]
 8002cae:	bf08      	it	eq
 8002cb0:	ea25 75e5 	biceq.w	r5, r5, r5, asr #31
 8002cb4:	4293      	cmp	r3, r2
 8002cb6:	bfc4      	itt	gt
 8002cb8:	1a9b      	subgt	r3, r3, r2
 8002cba:	18ed      	addgt	r5, r5, r3
 8002cbc:	341a      	adds	r4, #26
 8002cbe:	454d      	cmp	r5, r9
 8002cc0:	d11b      	bne.n	8002cfa <_printf_common+0xda>
 8002cc2:	2000      	movs	r0, #0
 8002cc4:	e8bd 87f0 	ldmia.w	sp!, {r4, r5, r6, r7, r8, r9, sl, pc}
 8002cc8:	2301      	movs	r3, #1
 8002cca:	4652      	mov	r2, sl
 8002ccc:	4639      	mov	r1, r7
 8002cce:	4630      	mov	r0, r6
 8002cd0:	47c0      	blx	r8
 8002cd2:	3001      	adds	r0, #1
 8002cd4:	d103      	bne.n	8002cde <_printf_common+0xbe>
 8002cd6:	f04f 30ff 	mov.w	r0, #4294967295
 8002cda:	e8bd 87f0 	ldmia.w	sp!, {r4, r5, r6, r7, r8, r9, sl, pc}
 8002cde:	3501      	adds	r5, #1
 8002ce0:	e7c1      	b.n	8002c66 <_printf_common+0x46>
 8002ce2:	2030      	movs	r0, #48	; 0x30
 8002ce4:	18e1      	adds	r1, r4, r3
 8002ce6:	f881 0043 	strb.w	r0, [r1, #67]	; 0x43
 8002cea:	1c5a      	adds	r2, r3, #1
 8002cec:	f894 1045 	ldrb.w	r1, [r4, #69]	; 0x45
 8002cf0:	4422      	add	r2, r4
 8002cf2:	3302      	adds	r3, #2
 8002cf4:	f882 1043 	strb.w	r1, [r2, #67]	; 0x43
 8002cf8:	e7c3      	b.n	8002c82 <_printf_common+0x62>
 8002cfa:	2301      	movs	r3, #1
 8002cfc:	4622      	mov	r2, r4
 8002cfe:	4639      	mov	r1, r7
 8002d00:	4630      	mov	r0, r6
 8002d02:	47c0      	blx	r8
 8002d04:	3001      	adds	r0, #1
 8002d06:	d0e6      	beq.n	8002cd6 <_printf_common+0xb6>
 8002d08:	f109 0901 	add.w	r9, r9, #1
 8002d0c:	e7d7      	b.n	8002cbe <_printf_common+0x9e>
	...

08002d10 <_printf_i>:
 8002d10:	e92d 43f0 	stmdb	sp!, {r4, r5, r6, r7, r8, r9, lr}
 8002d14:	4617      	mov	r7, r2
 8002d16:	7e0a      	ldrb	r2, [r1, #24]
 8002d18:	b085      	sub	sp, #20
 8002d1a:	2a6e      	cmp	r2, #110	; 0x6e
 8002d1c:	4698      	mov	r8, r3
 8002d1e:	4606      	mov	r6, r0
 8002d20:	460c      	mov	r4, r1
 8002d22:	9b0c      	ldr	r3, [sp, #48]	; 0x30
 8002d24:	f101 0e43 	add.w	lr, r1, #67	; 0x43
 8002d28:	f000 80bc 	beq.w	8002ea4 <_printf_i+0x194>
 8002d2c:	d81a      	bhi.n	8002d64 <_printf_i+0x54>
 8002d2e:	2a63      	cmp	r2, #99	; 0x63
 8002d30:	d02e      	beq.n	8002d90 <_printf_i+0x80>
 8002d32:	d80a      	bhi.n	8002d4a <_printf_i+0x3a>
 8002d34:	2a00      	cmp	r2, #0
 8002d36:	f000 80c8 	beq.w	8002eca <_printf_i+0x1ba>
 8002d3a:	2a58      	cmp	r2, #88	; 0x58
 8002d3c:	f000 808a 	beq.w	8002e54 <_printf_i+0x144>
 8002d40:	f104 0542 	add.w	r5, r4, #66	; 0x42
 8002d44:	f884 2042 	strb.w	r2, [r4, #66]	; 0x42
 8002d48:	e02a      	b.n	8002da0 <_printf_i+0x90>
 8002d4a:	2a64      	cmp	r2, #100	; 0x64
 8002d4c:	d001      	beq.n	8002d52 <_printf_i+0x42>
 8002d4e:	2a69      	cmp	r2, #105	; 0x69
 8002d50:	d1f6      	bne.n	8002d40 <_printf_i+0x30>
 8002d52:	6821      	ldr	r1, [r4, #0]
 8002d54:	681a      	ldr	r2, [r3, #0]
 8002d56:	f011 0f80 	tst.w	r1, #128	; 0x80
 8002d5a:	d023      	beq.n	8002da4 <_printf_i+0x94>
 8002d5c:	1d11      	adds	r1, r2, #4
 8002d5e:	6019      	str	r1, [r3, #0]
 8002d60:	6813      	ldr	r3, [r2, #0]
 8002d62:	e027      	b.n	8002db4 <_printf_i+0xa4>
 8002d64:	2a73      	cmp	r2, #115	; 0x73
 8002d66:	f000 80b4 	beq.w	8002ed2 <_printf_i+0x1c2>
 8002d6a:	d808      	bhi.n	8002d7e <_printf_i+0x6e>
 8002d6c:	2a6f      	cmp	r2, #111	; 0x6f
 8002d6e:	d02a      	beq.n	8002dc6 <_printf_i+0xb6>
 8002d70:	2a70      	cmp	r2, #112	; 0x70
 8002d72:	d1e5      	bne.n	8002d40 <_printf_i+0x30>
 8002d74:	680a      	ldr	r2, [r1, #0]
 8002d76:	f042 0220 	orr.w	r2, r2, #32
 8002d7a:	600a      	str	r2, [r1, #0]
 8002d7c:	e003      	b.n	8002d86 <_printf_i+0x76>
 8002d7e:	2a75      	cmp	r2, #117	; 0x75
 8002d80:	d021      	beq.n	8002dc6 <_printf_i+0xb6>
 8002d82:	2a78      	cmp	r2, #120	; 0x78
 8002d84:	d1dc      	bne.n	8002d40 <_printf_i+0x30>
 8002d86:	2278      	movs	r2, #120	; 0x78
 8002d88:	496f      	ldr	r1, [pc, #444]	; (8002f48 <_printf_i+0x238>)
 8002d8a:	f884 2045 	strb.w	r2, [r4, #69]	; 0x45
 8002d8e:	e064      	b.n	8002e5a <_printf_i+0x14a>
 8002d90:	681a      	ldr	r2, [r3, #0]
 8002d92:	f101 0542 	add.w	r5, r1, #66	; 0x42
 8002d96:	1d11      	adds	r1, r2, #4
 8002d98:	6019      	str	r1, [r3, #0]
 8002d9a:	6813      	ldr	r3, [r2, #0]
 8002d9c:	f884 3042 	strb.w	r3, [r4, #66]	; 0x42
 8002da0:	2301      	movs	r3, #1
 8002da2:	e0a3      	b.n	8002eec <_printf_i+0x1dc>
 8002da4:	f011 0f40 	tst.w	r1, #64	; 0x40
 8002da8:	f102 0104 	add.w	r1, r2, #4
 8002dac:	6019      	str	r1, [r3, #0]
 8002dae:	d0d7      	beq.n	8002d60 <_printf_i+0x50>
 8002db0:	f9b2 3000 	ldrsh.w	r3, [r2]
 8002db4:	2b00      	cmp	r3, #0
 8002db6:	da03      	bge.n	8002dc0 <_printf_i+0xb0>
 8002db8:	222d      	movs	r2, #45	; 0x2d
 8002dba:	425b      	negs	r3, r3
 8002dbc:	f884 2043 	strb.w	r2, [r4, #67]	; 0x43
 8002dc0:	4962      	ldr	r1, [pc, #392]	; (8002f4c <_printf_i+0x23c>)
 8002dc2:	220a      	movs	r2, #10
 8002dc4:	e017      	b.n	8002df6 <_printf_i+0xe6>
 8002dc6:	6820      	ldr	r0, [r4, #0]
 8002dc8:	6819      	ldr	r1, [r3, #0]
 8002dca:	f010 0f80 	tst.w	r0, #128	; 0x80
 8002dce:	d003      	beq.n	8002dd8 <_printf_i+0xc8>
 8002dd0:	1d08      	adds	r0, r1, #4
 8002dd2:	6018      	str	r0, [r3, #0]
 8002dd4:	680b      	ldr	r3, [r1, #0]
 8002dd6:	e006      	b.n	8002de6 <_printf_i+0xd6>
 8002dd8:	f010 0f40 	tst.w	r0, #64	; 0x40
 8002ddc:	f101 0004 	add.w	r0, r1, #4
 8002de0:	6018      	str	r0, [r3, #0]
 8002de2:	d0f7      	beq.n	8002dd4 <_printf_i+0xc4>
 8002de4:	880b      	ldrh	r3, [r1, #0]
 8002de6:	2a6f      	cmp	r2, #111	; 0x6f
 8002de8:	bf14      	ite	ne
 8002dea:	220a      	movne	r2, #10
 8002dec:	2208      	moveq	r2, #8
 8002dee:	4957      	ldr	r1, [pc, #348]	; (8002f4c <_printf_i+0x23c>)
 8002df0:	2000      	movs	r0, #0
 8002df2:	f884 0043 	strb.w	r0, [r4, #67]	; 0x43
 8002df6:	6865      	ldr	r5, [r4, #4]
 8002df8:	2d00      	cmp	r5, #0
 8002dfa:	60a5      	str	r5, [r4, #8]
 8002dfc:	f2c0 809c 	blt.w	8002f38 <_printf_i+0x228>
 8002e00:	6820      	ldr	r0, [r4, #0]
 8002e02:	f020 0004 	bic.w	r0, r0, #4
 8002e06:	6020      	str	r0, [r4, #0]
 8002e08:	2b00      	cmp	r3, #0
 8002e0a:	d13f      	bne.n	8002e8c <_printf_i+0x17c>
 8002e0c:	2d00      	cmp	r5, #0
 8002e0e:	f040 8095 	bne.w	8002f3c <_printf_i+0x22c>
 8002e12:	4675      	mov	r5, lr
 8002e14:	2a08      	cmp	r2, #8
 8002e16:	d10b      	bne.n	8002e30 <_printf_i+0x120>
 8002e18:	6823      	ldr	r3, [r4, #0]
 8002e1a:	07da      	lsls	r2, r3, #31
 8002e1c:	d508      	bpl.n	8002e30 <_printf_i+0x120>
 8002e1e:	6923      	ldr	r3, [r4, #16]
 8002e20:	6862      	ldr	r2, [r4, #4]
 8002e22:	429a      	cmp	r2, r3
 8002e24:	bfde      	ittt	le
 8002e26:	2330      	movle	r3, #48	; 0x30
 8002e28:	f805 3c01 	strble.w	r3, [r5, #-1]
 8002e2c:	f105 35ff 	addle.w	r5, r5, #4294967295
 8002e30:	ebae 0305 	sub.w	r3, lr, r5
 8002e34:	6123      	str	r3, [r4, #16]
 8002e36:	f8cd 8000 	str.w	r8, [sp]
 8002e3a:	463b      	mov	r3, r7
 8002e3c:	aa03      	add	r2, sp, #12
 8002e3e:	4621      	mov	r1, r4
 8002e40:	4630      	mov	r0, r6
 8002e42:	f7ff feed 	bl	8002c20 <_printf_common>
 8002e46:	3001      	adds	r0, #1
 8002e48:	d155      	bne.n	8002ef6 <_printf_i+0x1e6>
 8002e4a:	f04f 30ff 	mov.w	r0, #4294967295
 8002e4e:	b005      	add	sp, #20
 8002e50:	e8bd 83f0 	ldmia.w	sp!, {r4, r5, r6, r7, r8, r9, pc}
 8002e54:	f881 2045 	strb.w	r2, [r1, #69]	; 0x45
 8002e58:	493c      	ldr	r1, [pc, #240]	; (8002f4c <_printf_i+0x23c>)
 8002e5a:	6822      	ldr	r2, [r4, #0]
 8002e5c:	6818      	ldr	r0, [r3, #0]
 8002e5e:	f012 0f80 	tst.w	r2, #128	; 0x80
 8002e62:	f100 0504 	add.w	r5, r0, #4
 8002e66:	601d      	str	r5, [r3, #0]
 8002e68:	d001      	beq.n	8002e6e <_printf_i+0x15e>
 8002e6a:	6803      	ldr	r3, [r0, #0]
 8002e6c:	e002      	b.n	8002e74 <_printf_i+0x164>
 8002e6e:	0655      	lsls	r5, r2, #25
 8002e70:	d5fb      	bpl.n	8002e6a <_printf_i+0x15a>
 8002e72:	8803      	ldrh	r3, [r0, #0]
 8002e74:	07d0      	lsls	r0, r2, #31
 8002e76:	bf44      	itt	mi
 8002e78:	f042 0220 	orrmi.w	r2, r2, #32
 8002e7c:	6022      	strmi	r2, [r4, #0]
 8002e7e:	b91b      	cbnz	r3, 8002e88 <_printf_i+0x178>
 8002e80:	6822      	ldr	r2, [r4, #0]
 8002e82:	f022 0220 	bic.w	r2, r2, #32
 8002e86:	6022      	str	r2, [r4, #0]
 8002e88:	2210      	movs	r2, #16
 8002e8a:	e7b1      	b.n	8002df0 <_printf_i+0xe0>
 8002e8c:	4675      	mov	r5, lr
 8002e8e:	fbb3 f0f2 	udiv	r0, r3, r2
 8002e92:	fb02 3310 	mls	r3, r2, r0, r3
 8002e96:	5ccb      	ldrb	r3, [r1, r3]
 8002e98:	f805 3d01 	strb.w	r3, [r5, #-1]!
 8002e9c:	4603      	mov	r3, r0
 8002e9e:	2800      	cmp	r0, #0
 8002ea0:	d1f5      	bne.n	8002e8e <_printf_i+0x17e>
 8002ea2:	e7b7      	b.n	8002e14 <_printf_i+0x104>
 8002ea4:	6808      	ldr	r0, [r1, #0]
 8002ea6:	681a      	ldr	r2, [r3, #0]
 8002ea8:	f010 0f80 	tst.w	r0, #128	; 0x80
 8002eac:	6949      	ldr	r1, [r1, #20]
 8002eae:	d004      	beq.n	8002eba <_printf_i+0x1aa>
 8002eb0:	1d10      	adds	r0, r2, #4
 8002eb2:	6018      	str	r0, [r3, #0]
 8002eb4:	6813      	ldr	r3, [r2, #0]
 8002eb6:	6019      	str	r1, [r3, #0]
 8002eb8:	e007      	b.n	8002eca <_printf_i+0x1ba>
 8002eba:	f010 0f40 	tst.w	r0, #64	; 0x40
 8002ebe:	f102 0004 	add.w	r0, r2, #4
 8002ec2:	6018      	str	r0, [r3, #0]
 8002ec4:	6813      	ldr	r3, [r2, #0]
 8002ec6:	d0f6      	beq.n	8002eb6 <_printf_i+0x1a6>
 8002ec8:	8019      	strh	r1, [r3, #0]
 8002eca:	2300      	movs	r3, #0
 8002ecc:	4675      	mov	r5, lr
 8002ece:	6123      	str	r3, [r4, #16]
 8002ed0:	e7b1      	b.n	8002e36 <_printf_i+0x126>
 8002ed2:	681a      	ldr	r2, [r3, #0]
 8002ed4:	1d11      	adds	r1, r2, #4
 8002ed6:	6019      	str	r1, [r3, #0]
 8002ed8:	6815      	ldr	r5, [r2, #0]
 8002eda:	2100      	movs	r1, #0
 8002edc:	6862      	ldr	r2, [r4, #4]
 8002ede:	4628      	mov	r0, r5
 8002ee0:	f000 f836 	bl	8002f50 <memchr>
 8002ee4:	b108      	cbz	r0, 8002eea <_printf_i+0x1da>
 8002ee6:	1b40      	subs	r0, r0, r5
 8002ee8:	6060      	str	r0, [r4, #4]
 8002eea:	6863      	ldr	r3, [r4, #4]
 8002eec:	6123      	str	r3, [r4, #16]
 8002eee:	2300      	movs	r3, #0
 8002ef0:	f884 3043 	strb.w	r3, [r4, #67]	; 0x43
 8002ef4:	e79f      	b.n	8002e36 <_printf_i+0x126>
 8002ef6:	6923      	ldr	r3, [r4, #16]
 8002ef8:	462a      	mov	r2, r5
 8002efa:	4639      	mov	r1, r7
 8002efc:	4630      	mov	r0, r6
 8002efe:	47c0      	blx	r8
 8002f00:	3001      	adds	r0, #1
 8002f02:	d0a2      	beq.n	8002e4a <_printf_i+0x13a>
 8002f04:	6823      	ldr	r3, [r4, #0]
 8002f06:	079b      	lsls	r3, r3, #30
 8002f08:	d507      	bpl.n	8002f1a <_printf_i+0x20a>
 8002f0a:	2500      	movs	r5, #0
 8002f0c:	f104 0919 	add.w	r9, r4, #25
 8002f10:	68e3      	ldr	r3, [r4, #12]
 8002f12:	9a03      	ldr	r2, [sp, #12]
 8002f14:	1a9b      	subs	r3, r3, r2
 8002f16:	429d      	cmp	r5, r3
 8002f18:	db05      	blt.n	8002f26 <_printf_i+0x216>
 8002f1a:	68e0      	ldr	r0, [r4, #12]
 8002f1c:	9b03      	ldr	r3, [sp, #12]
 8002f1e:	4298      	cmp	r0, r3
 8002f20:	bfb8      	it	lt
 8002f22:	4618      	movlt	r0, r3
 8002f24:	e793      	b.n	8002e4e <_printf_i+0x13e>
 8002f26:	2301      	movs	r3, #1
 8002f28:	464a      	mov	r2, r9
 8002f2a:	4639      	mov	r1, r7
 8002f2c:	4630      	mov	r0, r6
 8002f2e:	47c0      	blx	r8
 8002f30:	3001      	adds	r0, #1
 8002f32:	d08a      	beq.n	8002e4a <_printf_i+0x13a>
 8002f34:	3501      	adds	r5, #1
 8002f36:	e7eb      	b.n	8002f10 <_printf_i+0x200>
 8002f38:	2b00      	cmp	r3, #0
 8002f3a:	d1a7      	bne.n	8002e8c <_printf_i+0x17c>
 8002f3c:	780b      	ldrb	r3, [r1, #0]
 8002f3e:	f104 0542 	add.w	r5, r4, #66	; 0x42
 8002f42:	f884 3042 	strb.w	r3, [r4, #66]	; 0x42
 8002f46:	e765      	b.n	8002e14 <_printf_i+0x104>
 8002f48:	08003447 	.word	0x08003447
 8002f4c:	08003436 	.word	0x08003436

08002f50 <memchr>:
 8002f50:	b510      	push	{r4, lr}
 8002f52:	b2c9      	uxtb	r1, r1
 8002f54:	4402      	add	r2, r0
 8002f56:	4290      	cmp	r0, r2
 8002f58:	4603      	mov	r3, r0
 8002f5a:	d101      	bne.n	8002f60 <memchr+0x10>
 8002f5c:	2000      	movs	r0, #0
 8002f5e:	bd10      	pop	{r4, pc}
 8002f60:	781c      	ldrb	r4, [r3, #0]
 8002f62:	3001      	adds	r0, #1
 8002f64:	428c      	cmp	r4, r1
 8002f66:	d1f6      	bne.n	8002f56 <memchr+0x6>
 8002f68:	4618      	mov	r0, r3
 8002f6a:	bd10      	pop	{r4, pc}

08002f6c <memcpy>:
 8002f6c:	b510      	push	{r4, lr}
 8002f6e:	1e43      	subs	r3, r0, #1
 8002f70:	440a      	add	r2, r1
 8002f72:	4291      	cmp	r1, r2
 8002f74:	d100      	bne.n	8002f78 <memcpy+0xc>
 8002f76:	bd10      	pop	{r4, pc}
 8002f78:	f811 4b01 	ldrb.w	r4, [r1], #1
 8002f7c:	f803 4f01 	strb.w	r4, [r3, #1]!
 8002f80:	e7f7      	b.n	8002f72 <memcpy+0x6>

08002f82 <memmove>:
 8002f82:	4288      	cmp	r0, r1
 8002f84:	b510      	push	{r4, lr}
 8002f86:	eb01 0302 	add.w	r3, r1, r2
 8002f8a:	d803      	bhi.n	8002f94 <memmove+0x12>
 8002f8c:	1e42      	subs	r2, r0, #1
 8002f8e:	4299      	cmp	r1, r3
 8002f90:	d10c      	bne.n	8002fac <memmove+0x2a>
 8002f92:	bd10      	pop	{r4, pc}
 8002f94:	4298      	cmp	r0, r3
 8002f96:	d2f9      	bcs.n	8002f8c <memmove+0xa>
 8002f98:	1881      	adds	r1, r0, r2
 8002f9a:	1ad2      	subs	r2, r2, r3
 8002f9c:	42d3      	cmn	r3, r2
 8002f9e:	d100      	bne.n	8002fa2 <memmove+0x20>
 8002fa0:	bd10      	pop	{r4, pc}
 8002fa2:	f813 4d01 	ldrb.w	r4, [r3, #-1]!
 8002fa6:	f801 4d01 	strb.w	r4, [r1, #-1]!
 8002faa:	e7f7      	b.n	8002f9c <memmove+0x1a>
 8002fac:	f811 4b01 	ldrb.w	r4, [r1], #1
 8002fb0:	f802 4f01 	strb.w	r4, [r2, #1]!
 8002fb4:	e7eb      	b.n	8002f8e <memmove+0xc>
	...

08002fb8 <_free_r>:
 8002fb8:	b538      	push	{r3, r4, r5, lr}
 8002fba:	4605      	mov	r5, r0
 8002fbc:	2900      	cmp	r1, #0
 8002fbe:	d043      	beq.n	8003048 <_free_r+0x90>
 8002fc0:	f851 3c04 	ldr.w	r3, [r1, #-4]
 8002fc4:	1f0c      	subs	r4, r1, #4
 8002fc6:	2b00      	cmp	r3, #0
 8002fc8:	bfb8      	it	lt
 8002fca:	18e4      	addlt	r4, r4, r3
 8002fcc:	f000 f8d4 	bl	8003178 <__malloc_lock>
 8002fd0:	4a1e      	ldr	r2, [pc, #120]	; (800304c <_free_r+0x94>)
 8002fd2:	6813      	ldr	r3, [r2, #0]
 8002fd4:	4610      	mov	r0, r2
 8002fd6:	b933      	cbnz	r3, 8002fe6 <_free_r+0x2e>
 8002fd8:	6063      	str	r3, [r4, #4]
 8002fda:	6014      	str	r4, [r2, #0]
 8002fdc:	4628      	mov	r0, r5
 8002fde:	e8bd 4038 	ldmia.w	sp!, {r3, r4, r5, lr}
 8002fe2:	f000 b8ca 	b.w	800317a <__malloc_unlock>
 8002fe6:	42a3      	cmp	r3, r4
 8002fe8:	d90b      	bls.n	8003002 <_free_r+0x4a>
 8002fea:	6821      	ldr	r1, [r4, #0]
 8002fec:	1862      	adds	r2, r4, r1
 8002fee:	4293      	cmp	r3, r2
 8002ff0:	bf01      	itttt	eq
 8002ff2:	681a      	ldreq	r2, [r3, #0]
 8002ff4:	685b      	ldreq	r3, [r3, #4]
 8002ff6:	1852      	addeq	r2, r2, r1
 8002ff8:	6022      	streq	r2, [r4, #0]
 8002ffa:	6063      	str	r3, [r4, #4]
 8002ffc:	6004      	str	r4, [r0, #0]
 8002ffe:	e7ed      	b.n	8002fdc <_free_r+0x24>
 8003000:	4613      	mov	r3, r2
 8003002:	685a      	ldr	r2, [r3, #4]
 8003004:	b10a      	cbz	r2, 800300a <_free_r+0x52>
 8003006:	42a2      	cmp	r2, r4
 8003008:	d9fa      	bls.n	8003000 <_free_r+0x48>
 800300a:	6819      	ldr	r1, [r3, #0]
 800300c:	1858      	adds	r0, r3, r1
 800300e:	42a0      	cmp	r0, r4
 8003010:	d10b      	bne.n	800302a <_free_r+0x72>
 8003012:	6820      	ldr	r0, [r4, #0]
 8003014:	4401      	add	r1, r0
 8003016:	1858      	adds	r0, r3, r1
 8003018:	4282      	cmp	r2, r0
 800301a:	6019      	str	r1, [r3, #0]
 800301c:	d1de      	bne.n	8002fdc <_free_r+0x24>
 800301e:	6810      	ldr	r0, [r2, #0]
 8003020:	6852      	ldr	r2, [r2, #4]
 8003022:	4401      	add	r1, r0
 8003024:	6019      	str	r1, [r3, #0]
 8003026:	605a      	str	r2, [r3, #4]
 8003028:	e7d8      	b.n	8002fdc <_free_r+0x24>
 800302a:	d902      	bls.n	8003032 <_free_r+0x7a>
 800302c:	230c      	movs	r3, #12
 800302e:	602b      	str	r3, [r5, #0]
 8003030:	e7d4      	b.n	8002fdc <_free_r+0x24>
 8003032:	6820      	ldr	r0, [r4, #0]
 8003034:	1821      	adds	r1, r4, r0
 8003036:	428a      	cmp	r2, r1
 8003038:	bf01      	itttt	eq
 800303a:	6811      	ldreq	r1, [r2, #0]
 800303c:	6852      	ldreq	r2, [r2, #4]
 800303e:	1809      	addeq	r1, r1, r0
 8003040:	6021      	streq	r1, [r4, #0]
 8003042:	6062      	str	r2, [r4, #4]
 8003044:	605c      	str	r4, [r3, #4]
 8003046:	e7c9      	b.n	8002fdc <_free_r+0x24>
 8003048:	bd38      	pop	{r3, r4, r5, pc}
 800304a:	bf00      	nop
 800304c:	200000ac 	.word	0x200000ac

08003050 <_malloc_r>:
 8003050:	b570      	push	{r4, r5, r6, lr}
 8003052:	1ccd      	adds	r5, r1, #3
 8003054:	f025 0503 	bic.w	r5, r5, #3
 8003058:	3508      	adds	r5, #8
 800305a:	2d0c      	cmp	r5, #12
 800305c:	bf38      	it	cc
 800305e:	250c      	movcc	r5, #12
 8003060:	2d00      	cmp	r5, #0
 8003062:	4606      	mov	r6, r0
 8003064:	db01      	blt.n	800306a <_malloc_r+0x1a>
 8003066:	42a9      	cmp	r1, r5
 8003068:	d903      	bls.n	8003072 <_malloc_r+0x22>
 800306a:	230c      	movs	r3, #12
 800306c:	6033      	str	r3, [r6, #0]
 800306e:	2000      	movs	r0, #0
 8003070:	bd70      	pop	{r4, r5, r6, pc}
 8003072:	f000 f881 	bl	8003178 <__malloc_lock>
 8003076:	4a23      	ldr	r2, [pc, #140]	; (8003104 <_malloc_r+0xb4>)
 8003078:	6814      	ldr	r4, [r2, #0]
 800307a:	4621      	mov	r1, r4
 800307c:	b991      	cbnz	r1, 80030a4 <_malloc_r+0x54>
 800307e:	4c22      	ldr	r4, [pc, #136]	; (8003108 <_malloc_r+0xb8>)
 8003080:	6823      	ldr	r3, [r4, #0]
 8003082:	b91b      	cbnz	r3, 800308c <_malloc_r+0x3c>
 8003084:	4630      	mov	r0, r6
 8003086:	f000 f867 	bl	8003158 <_sbrk_r>
 800308a:	6020      	str	r0, [r4, #0]
 800308c:	4629      	mov	r1, r5
 800308e:	4630      	mov	r0, r6
 8003090:	f000 f862 	bl	8003158 <_sbrk_r>
 8003094:	1c43      	adds	r3, r0, #1
 8003096:	d126      	bne.n	80030e6 <_malloc_r+0x96>
 8003098:	230c      	movs	r3, #12
 800309a:	4630      	mov	r0, r6
 800309c:	6033      	str	r3, [r6, #0]
 800309e:	f000 f86c 	bl	800317a <__malloc_unlock>
 80030a2:	e7e4      	b.n	800306e <_malloc_r+0x1e>
 80030a4:	680b      	ldr	r3, [r1, #0]
 80030a6:	1b5b      	subs	r3, r3, r5
 80030a8:	d41a      	bmi.n	80030e0 <_malloc_r+0x90>
 80030aa:	2b0b      	cmp	r3, #11
 80030ac:	d90f      	bls.n	80030ce <_malloc_r+0x7e>
 80030ae:	600b      	str	r3, [r1, #0]
 80030b0:	18cc      	adds	r4, r1, r3
 80030b2:	50cd      	str	r5, [r1, r3]
 80030b4:	4630      	mov	r0, r6
 80030b6:	f000 f860 	bl	800317a <__malloc_unlock>
 80030ba:	f104 000b 	add.w	r0, r4, #11
 80030be:	1d23      	adds	r3, r4, #4
 80030c0:	f020 0007 	bic.w	r0, r0, #7
 80030c4:	1ac3      	subs	r3, r0, r3
 80030c6:	d01b      	beq.n	8003100 <_malloc_r+0xb0>
 80030c8:	425a      	negs	r2, r3
 80030ca:	50e2      	str	r2, [r4, r3]
 80030cc:	bd70      	pop	{r4, r5, r6, pc}
 80030ce:	428c      	cmp	r4, r1
 80030d0:	bf0b      	itete	eq
 80030d2:	6863      	ldreq	r3, [r4, #4]
 80030d4:	684b      	ldrne	r3, [r1, #4]
 80030d6:	6013      	streq	r3, [r2, #0]
 80030d8:	6063      	strne	r3, [r4, #4]
 80030da:	bf18      	it	ne
 80030dc:	460c      	movne	r4, r1
 80030de:	e7e9      	b.n	80030b4 <_malloc_r+0x64>
 80030e0:	460c      	mov	r4, r1
 80030e2:	6849      	ldr	r1, [r1, #4]
 80030e4:	e7ca      	b.n	800307c <_malloc_r+0x2c>
 80030e6:	1cc4      	adds	r4, r0, #3
 80030e8:	f024 0403 	bic.w	r4, r4, #3
 80030ec:	42a0      	cmp	r0, r4
 80030ee:	d005      	beq.n	80030fc <_malloc_r+0xac>
 80030f0:	1a21      	subs	r1, r4, r0
 80030f2:	4630      	mov	r0, r6
 80030f4:	f000 f830 	bl	8003158 <_sbrk_r>
 80030f8:	3001      	adds	r0, #1
 80030fa:	d0cd      	beq.n	8003098 <_malloc_r+0x48>
 80030fc:	6025      	str	r5, [r4, #0]
 80030fe:	e7d9      	b.n	80030b4 <_malloc_r+0x64>
 8003100:	bd70      	pop	{r4, r5, r6, pc}
 8003102:	bf00      	nop
 8003104:	200000ac 	.word	0x200000ac
 8003108:	200000b0 	.word	0x200000b0

0800310c <_realloc_r>:
 800310c:	b5f8      	push	{r3, r4, r5, r6, r7, lr}
 800310e:	4607      	mov	r7, r0
 8003110:	4614      	mov	r4, r2
 8003112:	460e      	mov	r6, r1
 8003114:	b921      	cbnz	r1, 8003120 <_realloc_r+0x14>
 8003116:	4611      	mov	r1, r2
 8003118:	e8bd 40f8 	ldmia.w	sp!, {r3, r4, r5, r6, r7, lr}
 800311c:	f7ff bf98 	b.w	8003050 <_malloc_r>
 8003120:	b922      	cbnz	r2, 800312c <_realloc_r+0x20>
 8003122:	f7ff ff49 	bl	8002fb8 <_free_r>
 8003126:	4625      	mov	r5, r4
 8003128:	4628      	mov	r0, r5
 800312a:	bdf8      	pop	{r3, r4, r5, r6, r7, pc}
 800312c:	f000 f826 	bl	800317c <_malloc_usable_size_r>
 8003130:	4284      	cmp	r4, r0
 8003132:	d90f      	bls.n	8003154 <_realloc_r+0x48>
 8003134:	4621      	mov	r1, r4
 8003136:	4638      	mov	r0, r7
 8003138:	f7ff ff8a 	bl	8003050 <_malloc_r>
 800313c:	4605      	mov	r5, r0
 800313e:	2800      	cmp	r0, #0
 8003140:	d0f2      	beq.n	8003128 <_realloc_r+0x1c>
 8003142:	4631      	mov	r1, r6
 8003144:	4622      	mov	r2, r4
 8003146:	f7ff ff11 	bl	8002f6c <memcpy>
 800314a:	4631      	mov	r1, r6
 800314c:	4638      	mov	r0, r7
 800314e:	f7ff ff33 	bl	8002fb8 <_free_r>
 8003152:	e7e9      	b.n	8003128 <_realloc_r+0x1c>
 8003154:	4635      	mov	r5, r6
 8003156:	e7e7      	b.n	8003128 <_realloc_r+0x1c>

08003158 <_sbrk_r>:
 8003158:	b538      	push	{r3, r4, r5, lr}
 800315a:	2300      	movs	r3, #0
 800315c:	4c05      	ldr	r4, [pc, #20]	; (8003174 <_sbrk_r+0x1c>)
 800315e:	4605      	mov	r5, r0
 8003160:	4608      	mov	r0, r1
 8003162:	6023      	str	r3, [r4, #0]
 8003164:	f7ff fb4e 	bl	8002804 <_sbrk>
 8003168:	1c43      	adds	r3, r0, #1
 800316a:	d102      	bne.n	8003172 <_sbrk_r+0x1a>
 800316c:	6823      	ldr	r3, [r4, #0]
 800316e:	b103      	cbz	r3, 8003172 <_sbrk_r+0x1a>
 8003170:	602b      	str	r3, [r5, #0]
 8003172:	bd38      	pop	{r3, r4, r5, pc}
 8003174:	2000016c 	.word	0x2000016c

08003178 <__malloc_lock>:
 8003178:	4770      	bx	lr

0800317a <__malloc_unlock>:
 800317a:	4770      	bx	lr

0800317c <_malloc_usable_size_r>:
 800317c:	f851 0c04 	ldr.w	r0, [r1, #-4]
 8003180:	2800      	cmp	r0, #0
 8003182:	f1a0 0004 	sub.w	r0, r0, #4
 8003186:	bfbc      	itt	lt
 8003188:	580b      	ldrlt	r3, [r1, r0]
 800318a:	18c0      	addlt	r0, r0, r3
 800318c:	4770      	bx	lr
	...

08003190 <sqrt>:
 8003190:	e92d 4ff0 	stmdb	sp!, {r4, r5, r6, r7, r8, r9, sl, fp, lr}
 8003194:	b08b      	sub	sp, #44	; 0x2c
 8003196:	4604      	mov	r4, r0
 8003198:	460d      	mov	r5, r1
 800319a:	f000 f84d 	bl	8003238 <__ieee754_sqrt>
 800319e:	4b24      	ldr	r3, [pc, #144]	; (8003230 <sqrt+0xa0>)
 80031a0:	4680      	mov	r8, r0
 80031a2:	f993 a000 	ldrsb.w	sl, [r3]
 80031a6:	4689      	mov	r9, r1
 80031a8:	f1ba 3fff 	cmp.w	sl, #4294967295
 80031ac:	d02b      	beq.n	8003206 <sqrt+0x76>
 80031ae:	4622      	mov	r2, r4
 80031b0:	462b      	mov	r3, r5
 80031b2:	4620      	mov	r0, r4
 80031b4:	4629      	mov	r1, r5
 80031b6:	f7fd fc85 	bl	8000ac4 <__aeabi_dcmpun>
 80031ba:	4683      	mov	fp, r0
 80031bc:	bb18      	cbnz	r0, 8003206 <sqrt+0x76>
 80031be:	2600      	movs	r6, #0
 80031c0:	2700      	movs	r7, #0
 80031c2:	4632      	mov	r2, r6
 80031c4:	463b      	mov	r3, r7
 80031c6:	4620      	mov	r0, r4
 80031c8:	4629      	mov	r1, r5
 80031ca:	f7fd fc53 	bl	8000a74 <__aeabi_dcmplt>
 80031ce:	b1d0      	cbz	r0, 8003206 <sqrt+0x76>
 80031d0:	2301      	movs	r3, #1
 80031d2:	9300      	str	r3, [sp, #0]
 80031d4:	4b17      	ldr	r3, [pc, #92]	; (8003234 <sqrt+0xa4>)
 80031d6:	f8cd b020 	str.w	fp, [sp, #32]
 80031da:	9301      	str	r3, [sp, #4]
 80031dc:	e9cd 4504 	strd	r4, r5, [sp, #16]
 80031e0:	e9cd 4502 	strd	r4, r5, [sp, #8]
 80031e4:	f1ba 0f00 	cmp.w	sl, #0
 80031e8:	d112      	bne.n	8003210 <sqrt+0x80>
 80031ea:	e9cd 6706 	strd	r6, r7, [sp, #24]
 80031ee:	4668      	mov	r0, sp
 80031f0:	f000 f8ce 	bl	8003390 <matherr>
 80031f4:	b1b8      	cbz	r0, 8003226 <sqrt+0x96>
 80031f6:	9b08      	ldr	r3, [sp, #32]
 80031f8:	b11b      	cbz	r3, 8003202 <sqrt+0x72>
 80031fa:	f7ff fb6b 	bl	80028d4 <__errno>
 80031fe:	9b08      	ldr	r3, [sp, #32]
 8003200:	6003      	str	r3, [r0, #0]
 8003202:	e9dd 8906 	ldrd	r8, r9, [sp, #24]
 8003206:	4640      	mov	r0, r8
 8003208:	4649      	mov	r1, r9
 800320a:	b00b      	add	sp, #44	; 0x2c
 800320c:	e8bd 8ff0 	ldmia.w	sp!, {r4, r5, r6, r7, r8, r9, sl, fp, pc}
 8003210:	4632      	mov	r2, r6
 8003212:	463b      	mov	r3, r7
 8003214:	4630      	mov	r0, r6
 8003216:	4639      	mov	r1, r7
 8003218:	f7fd fae4 	bl	80007e4 <__aeabi_ddiv>
 800321c:	f1ba 0f02 	cmp.w	sl, #2
 8003220:	e9cd 0106 	strd	r0, r1, [sp, #24]
 8003224:	d1e3      	bne.n	80031ee <sqrt+0x5e>
 8003226:	f7ff fb55 	bl	80028d4 <__errno>
 800322a:	2321      	movs	r3, #33	; 0x21
 800322c:	6003      	str	r3, [r0, #0]
 800322e:	e7e2      	b.n	80031f6 <sqrt+0x66>
 8003230:	20000084 	.word	0x20000084
 8003234:	08003458 	.word	0x08003458

08003238 <__ieee754_sqrt>:
 8003238:	e92d 41f0 	stmdb	sp!, {r4, r5, r6, r7, r8, lr}
 800323c:	f8df e14c 	ldr.w	lr, [pc, #332]	; 800338c <__ieee754_sqrt+0x154>
 8003240:	4606      	mov	r6, r0
 8003242:	ea3e 0e01 	bics.w	lr, lr, r1
 8003246:	460d      	mov	r5, r1
 8003248:	4607      	mov	r7, r0
 800324a:	460a      	mov	r2, r1
 800324c:	460c      	mov	r4, r1
 800324e:	4603      	mov	r3, r0
 8003250:	d10f      	bne.n	8003272 <__ieee754_sqrt+0x3a>
 8003252:	4602      	mov	r2, r0
 8003254:	460b      	mov	r3, r1
 8003256:	f7fd f99b 	bl	8000590 <__aeabi_dmul>
 800325a:	4602      	mov	r2, r0
 800325c:	460b      	mov	r3, r1
 800325e:	4630      	mov	r0, r6
 8003260:	4629      	mov	r1, r5
 8003262:	f7fc ffe3 	bl	800022c <__adddf3>
 8003266:	4606      	mov	r6, r0
 8003268:	460d      	mov	r5, r1
 800326a:	4630      	mov	r0, r6
 800326c:	4629      	mov	r1, r5
 800326e:	e8bd 81f0 	ldmia.w	sp!, {r4, r5, r6, r7, r8, pc}
 8003272:	2900      	cmp	r1, #0
 8003274:	dc0e      	bgt.n	8003294 <__ieee754_sqrt+0x5c>
 8003276:	f021 4e00 	bic.w	lr, r1, #2147483648	; 0x80000000
 800327a:	ea5e 0707 	orrs.w	r7, lr, r7
 800327e:	d0f4      	beq.n	800326a <__ieee754_sqrt+0x32>
 8003280:	b141      	cbz	r1, 8003294 <__ieee754_sqrt+0x5c>
 8003282:	4602      	mov	r2, r0
 8003284:	460b      	mov	r3, r1
 8003286:	f7fc ffcf 	bl	8000228 <__aeabi_dsub>
 800328a:	4602      	mov	r2, r0
 800328c:	460b      	mov	r3, r1
 800328e:	f7fd faa9 	bl	80007e4 <__aeabi_ddiv>
 8003292:	e7e8      	b.n	8003266 <__ieee754_sqrt+0x2e>
 8003294:	1512      	asrs	r2, r2, #20
 8003296:	d10c      	bne.n	80032b2 <__ieee754_sqrt+0x7a>
 8003298:	2c00      	cmp	r4, #0
 800329a:	d06e      	beq.n	800337a <__ieee754_sqrt+0x142>
 800329c:	2100      	movs	r1, #0
 800329e:	02e6      	lsls	r6, r4, #11
 80032a0:	d56f      	bpl.n	8003382 <__ieee754_sqrt+0x14a>
 80032a2:	1e48      	subs	r0, r1, #1
 80032a4:	1a12      	subs	r2, r2, r0
 80032a6:	f1c1 0020 	rsb	r0, r1, #32
 80032aa:	fa23 f000 	lsr.w	r0, r3, r0
 80032ae:	4304      	orrs	r4, r0
 80032b0:	408b      	lsls	r3, r1
 80032b2:	f2a2 32ff 	subw	r2, r2, #1023	; 0x3ff
 80032b6:	07d5      	lsls	r5, r2, #31
 80032b8:	f04f 0500 	mov.w	r5, #0
 80032bc:	f3c4 0413 	ubfx	r4, r4, #0, #20
 80032c0:	f444 1480 	orr.w	r4, r4, #1048576	; 0x100000
 80032c4:	bf42      	ittt	mi
 80032c6:	0064      	lslmi	r4, r4, #1
 80032c8:	eb04 74d3 	addmi.w	r4, r4, r3, lsr #31
 80032cc:	005b      	lslmi	r3, r3, #1
 80032ce:	eb04 71d3 	add.w	r1, r4, r3, lsr #31
 80032d2:	1050      	asrs	r0, r2, #1
 80032d4:	4421      	add	r1, r4
 80032d6:	2216      	movs	r2, #22
 80032d8:	462c      	mov	r4, r5
 80032da:	f44f 1600 	mov.w	r6, #2097152	; 0x200000
 80032de:	005b      	lsls	r3, r3, #1
 80032e0:	19a7      	adds	r7, r4, r6
 80032e2:	428f      	cmp	r7, r1
 80032e4:	bfde      	ittt	le
 80032e6:	1bc9      	suble	r1, r1, r7
 80032e8:	19bc      	addle	r4, r7, r6
 80032ea:	19ad      	addle	r5, r5, r6
 80032ec:	0049      	lsls	r1, r1, #1
 80032ee:	3a01      	subs	r2, #1
 80032f0:	eb01 71d3 	add.w	r1, r1, r3, lsr #31
 80032f4:	ea4f 0656 	mov.w	r6, r6, lsr #1
 80032f8:	ea4f 0343 	mov.w	r3, r3, lsl #1
 80032fc:	d1f0      	bne.n	80032e0 <__ieee754_sqrt+0xa8>
 80032fe:	f04f 0e20 	mov.w	lr, #32
 8003302:	4694      	mov	ip, r2
 8003304:	f04f 4600 	mov.w	r6, #2147483648	; 0x80000000
 8003308:	42a1      	cmp	r1, r4
 800330a:	eb06 070c 	add.w	r7, r6, ip
 800330e:	dc02      	bgt.n	8003316 <__ieee754_sqrt+0xde>
 8003310:	d112      	bne.n	8003338 <__ieee754_sqrt+0x100>
 8003312:	429f      	cmp	r7, r3
 8003314:	d810      	bhi.n	8003338 <__ieee754_sqrt+0x100>
 8003316:	2f00      	cmp	r7, #0
 8003318:	eb07 0c06 	add.w	ip, r7, r6
 800331c:	da34      	bge.n	8003388 <__ieee754_sqrt+0x150>
 800331e:	f1bc 0f00 	cmp.w	ip, #0
 8003322:	db31      	blt.n	8003388 <__ieee754_sqrt+0x150>
 8003324:	f104 0801 	add.w	r8, r4, #1
 8003328:	1b09      	subs	r1, r1, r4
 800332a:	4644      	mov	r4, r8
 800332c:	429f      	cmp	r7, r3
 800332e:	bf88      	it	hi
 8003330:	f101 31ff 	addhi.w	r1, r1, #4294967295
 8003334:	1bdb      	subs	r3, r3, r7
 8003336:	4432      	add	r2, r6
 8003338:	eb01 77d3 	add.w	r7, r1, r3, lsr #31
 800333c:	f1be 0e01 	subs.w	lr, lr, #1
 8003340:	4439      	add	r1, r7
 8003342:	ea4f 0343 	mov.w	r3, r3, lsl #1
 8003346:	ea4f 0656 	mov.w	r6, r6, lsr #1
 800334a:	d1dd      	bne.n	8003308 <__ieee754_sqrt+0xd0>
 800334c:	430b      	orrs	r3, r1
 800334e:	d006      	beq.n	800335e <__ieee754_sqrt+0x126>
 8003350:	1c54      	adds	r4, r2, #1
 8003352:	bf0b      	itete	eq
 8003354:	4672      	moveq	r2, lr
 8003356:	3201      	addne	r2, #1
 8003358:	3501      	addeq	r5, #1
 800335a:	f022 0201 	bicne.w	r2, r2, #1
 800335e:	106b      	asrs	r3, r5, #1
 8003360:	0852      	lsrs	r2, r2, #1
 8003362:	07e9      	lsls	r1, r5, #31
 8003364:	f103 537f 	add.w	r3, r3, #1069547520	; 0x3fc00000
 8003368:	f503 1300 	add.w	r3, r3, #2097152	; 0x200000
 800336c:	bf48      	it	mi
 800336e:	f042 4200 	orrmi.w	r2, r2, #2147483648	; 0x80000000
 8003372:	eb03 5500 	add.w	r5, r3, r0, lsl #20
 8003376:	4616      	mov	r6, r2
 8003378:	e777      	b.n	800326a <__ieee754_sqrt+0x32>
 800337a:	0adc      	lsrs	r4, r3, #11
 800337c:	3a15      	subs	r2, #21
 800337e:	055b      	lsls	r3, r3, #21
 8003380:	e78a      	b.n	8003298 <__ieee754_sqrt+0x60>
 8003382:	0064      	lsls	r4, r4, #1
 8003384:	3101      	adds	r1, #1
 8003386:	e78a      	b.n	800329e <__ieee754_sqrt+0x66>
 8003388:	46a0      	mov	r8, r4
 800338a:	e7cd      	b.n	8003328 <__ieee754_sqrt+0xf0>
 800338c:	7ff00000 	.word	0x7ff00000

08003390 <matherr>:
 8003390:	2000      	movs	r0, #0
 8003392:	4770      	bx	lr

08003394 <_init>:
 8003394:	b5f8      	push	{r3, r4, r5, r6, r7, lr}
 8003396:	bf00      	nop
 8003398:	bcf8      	pop	{r3, r4, r5, r6, r7}
 800339a:	bc08      	pop	{r3}
 800339c:	469e      	mov	lr, r3
 800339e:	4770      	bx	lr

080033a0 <_fini>:
 80033a0:	b5f8      	push	{r3, r4, r5, r6, r7, lr}
 80033a2:	bf00      	nop
 80033a4:	bcf8      	pop	{r3, r4, r5, r6, r7}
 80033a6:	bc08      	pop	{r3}
 80033a8:	469e      	mov	lr, r3
 80033aa:	4770      	bx	lr
